ccopy_reg
_reconstructor
p0
(ckeras.preprocessing.text
Tokenizer
p1
c__builtin__
object
p2
Ntp3
Rp4
(dp5
S'lower'
p6
I01
sS'word_index'
p7
(dp8
S'raining'
p9
I1192
sS'hats'
p10
I954
sS'yellow'
p11
I54
sS'four'
p12
I126
sS'woods'
p13
I159
sS'asian'
p14
I139
sS'railing'
p15
I307
sS'looking'
p16
I119
sS'feeding'
p17
I794
sS'patches'
p18
I1157
sS'swan'
p19
I1540
sS'bike'
p20
I85
sS'under'
p21
I215
sS'onstage'
p22
I815
sS'fists'
p23
I1455
sS'blanket'
p24
I445
sS'costume'
p25
I244
sS'closeup'
p26
I314
sS'jack'
p27
I721
sS'bringing'
p28
I848
sS'wooded'
p29
I406
sS'wooden'
p30
I219
sS'greenish'
p31
I711
sS'clothes'
p32
I648
sS'bicycle'
p33
I168
sS'quilt'
p34
I1124
sS'hanging'
p35
I742
sS'bannister'
p36
I1018
sS'second'
p37
I1571
sS'street'
p38
I60
sS'colourful'
p39
I713
sS'blue'
p40
I24
sS'cooking'
p41
I1487
sS'while'
p42
I28
sS'lights'
p43
I735
sS'above'
p44
I210
sS'net'
p45
I443
sS'helmets'
p46
I1558
sS'kicked'
p47
I740
sS'men'
p48
I112
sS'protection'
p49
I1566
sS'studio'
p50
I1552
sS'path'
p51
I121
sS'cardboard'
p52
I1438
sS'dry'
p53
I1045
sS'kids'
p54
I277
sS'leaves'
p55
I268
sS'climbed'
p56
I1150
sS'jogging'
p57
I984
sS'smoke'
p58
I463
sS'military'
p59
I874
sS'climber'
p60
I545
sS'golden'
p61
I1253
sS'straw'
p62
I569
sS'punching'
p63
I1136
sS'landscape'
p64
I390
sS'swings'
p65
I330
sS'sweater'
p66
I459
sS'arms'
p67
I274
sS'overhead'
p68
I842
sS'calf'
p69
I1478
sS'paperwork'
p70
I1226
sS'supporters'
p71
I1345
sS'expose'
p72
I768
sS'glass'
p73
I937
sS'adult'
p74
I216
sS'93'
p75
I982
sS'hold'
p76
I414
sS'blocking'
p77
I1256
sS'room'
p78
I319
sS'cyclers'
p79
I1323
sS'cellos'
p80
I896
sS'rollerskating'
p81
I939
sS'roof'
p82
I1032
sS'obstacle'
p83
I337
sS'squirting'
p84
I1398
sS'wand'
p85
I1038
sS'laughs'
p86
I462
sS'ceremony'
p87
I1332
sS'treck'
p88
I1418
sS'returning'
p89
I835
sS'braids'
p90
I1314
sS'machine'
p91
I608
sS'boats'
p92
I1053
sS'beach'
p93
I69
sS'pokes'
p94
I1375
sS'mouths'
p95
I1158
sS'shored'
p96
I1145
sS'after'
p97
I341
sS'lab'
p98
I773
sS'jumping'
p99
I35
sS'lay'
p100
I1117
sS'lap'
p101
I1356
sS'shirt'
p102
I31
sS'colorfully'
p103
I955
sS'third'
p104
I538
sS'cigarettes'
p105
I1495
sS'green'
p106
I56
sS'jungle'
p107
I720
sS'keeps'
p108
I729
sS'backdrop'
p109
I529
sS'wine'
p110
I428
sS'over'
p111
I65
sS'before'
p112
I470
sS'forehead'
p113
I1408
sS'chihuahua'
p114
I1284
sS'hudge'
p115
I1080
sS'writing'
p116
I1309
sS'sprays'
p117
I862
sS'fig'
p118
I1101
sS'them'
p119
I282
sS'school'
p120
I1453
sS'offroad'
p121
I941
sS'band'
p122
I895
sS'sack'
p123
I1205
sS'they'
p124
I286
sS'sidelines'
p125
I1549
sS'rocky'
p126
I435
sS'rocks'
p127
I247
sS'choir'
p128
I1340
sS'clothed'
p129
I1132
sS'each'
p130
I142
sS'side'
p131
I133
sS'train'
p132
I425
sS'bowls'
p133
I1034
sS'navy'
p134
I1416
sS'flock'
p135
I1228
sS'thorugh'
p136
I774
sS'driving'
p137
I336
sS'haired'
p138
I229
sS'cameras'
p139
I1107
sS'sliding'
p140
I1570
sS'splashed'
p141
I1083
sS'turning'
p142
I1547
sS'barrier'
p143
I386
sS'rail'
p144
I516
sS'free'
p145
I920
sS'splashes'
p146
I299
sS'knit'
p147
I537
sS'shrubbery'
p148
I1479
sS'baseman'
p149
I1168
sS'outfits'
p150
I1294
sS'takeout'
p151
I1102
sS'festival'
p152
I1437
sS'leaps'
p153
I324
sS'onto'
p154
I211
sS'hoop'
p155
I504
sS'puck'
p156
I615
sS'spinning'
p157
I903
sS'another'
p158
I43
sS'comic'
p159
I730
sS'toy'
p160
I132
sS'hydrant'
p161
I513
sS'top'
p162
I144
sS'cements'
p163
I1017
sS'attack'
p164
I1468
sS'elevator'
p165
I698
sS'too'
p166
I732
sS'gowns'
p167
I1381
sS'legs'
p168
I909
sS'dogs'
p169
I61
sS'urban'
p170
I1506
sS'bouncing'
p171
I818
sS'begins'
p172
I669
sS'distance'
p173
I595
sS'approachs'
p174
I1072
sS'surrounding'
p175
I1155
sS'hike'
p176
I737
sS'tree'
p177
I109
sS'seated'
p178
I367
sS'africanamericans'
p179
I826
sS'silly'
p180
I803
sS'tackled'
p181
I489
sS'hoodedcoat'
p182
I693
sS'bridge'
p183
I323
sS'dozes'
p184
I1317
sS'runner'
p185
I1169
sS'paddles'
p186
I1268
sS'talking'
p187
I1141
sS'seen'
p188
I594
sS'concrete'
p189
I174
sS'bleachers'
p190
I521
sS'snow'
p191
I57
sS'chest'
p192
I1153
sS'swims'
p193
I461
sS'rides'
p194
I129
sS'rider'
p195
I309
sS'crocs'
p196
I932
sS'object'
p197
I375
sS'mouth'
p198
I73
sS'slides'
p199
I592
sS'streches'
p200
I1199
sS'camp'
p201
I875
sS'metal'
p202
I311
sS'dog'
p203
I8
sS'points'
p204
I772
sS'camo'
p205
I1527
sS'colors'
p206
I756
sS'thirds'
p207
I1315
sS'toast'
p208
I583
sS'foraging'
p209
I893
sS'just'
p210
I950
sS'excercise'
p211
I1532
sS'folded'
p212
I989
sS'bush'
p213
I969
sS'touched'
p214
I1037
sS'goalie'
p215
I1457
sS'scrubbing'
p216
I1509
sS'wearing'
p217
I29
sS'do'
p218
I654
sS'tiles'
p219
I1522
sS'sunglasses'
p220
I206
sS'colorful'
p221
I266
sS'watch'
p222
I236
sS'dc'
p223
I1359
sS'pocket'
p224
I968
sS'watermelon'
p225
I1233
sS'cushion'
p226
I1560
sS'wedding'
p227
I938
sS'knocks'
p228
I718
sS'runs'
p229
I71
sS'bar'
p230
I605
sS'rowing'
p231
I408
sS'bag'
p232
I270
sS'shots'
p233
I702
sS'steal'
p234
I1421
sS'brushland'
p235
I894
sS'ears'
p236
I703
sS'fair'
p237
I502
sS'observes'
p238
I916
sS'fluffy'
p239
I906
sS'observed'
p240
I622
sS'draws'
p241
I1491
sS'away'
p242
I233
sS'artificial'
p243
I1305
sS'wetsuit'
p244
I370
sS'mud'
p245
I427
sS'overgrown'
p246
I712
sS'bracing'
p247
I929
sS'finger'
p248
I368
sS'crosscountry'
p249
I536
sS'wears'
p250
I401
sS'nature'
p251
I1065
sS'wear'
p252
I952
sS'modeling'
p253
I1409
sS'packages'
p254
I900
sS'roller'
p255
I496
sS'kitchen'
p256
I1272
sS'cop'
p257
I945
sS'cow'
p258
I563
sS'steep'
p259
I738
sS'against'
p260
I239
sS'bodysuit'
p261
I923
sS'participating'
p262
I905
sS'players'
p263
I378
sS'brindle'
p264
I645
sS'blonde'
p265
I196
sS'three'
p266
I111
sS'tiny'
p267
I1559
sS'beer'
p268
I522
sS'containers'
p269
I1481
sS'life'
p270
I892
sS'eastern'
p271
I767
sS'turned'
p272
I1249
sS'child'
p273
I33
sS'catch'
p274
I175
sS'tank'
p275
I983
sS'air'
p276
I49
sS'near'
p277
I72
sS'applies'
p278
I1432
sS'is'
p279
I6
sS'it'
p280
I118
sS'player'
p281
I52
sS'cone'
p282
I1081
sS'in'
p283
I3
sS'violin'
p284
I1115
sS'if'
p285
I1511
sS'memorial'
p286
I1357
sS'bottles'
p287
I798
sS'perform'
p288
I1166
sS'make'
p289
I582
sS'beside'
p290
I171
sS'vegetable'
p291
I1186
sS'several'
p292
I1293
sS'couple'
p293
I95
sS'bearded'
p294
I827
sS'peaks'
p295
I696
sS'hang'
p296
I881
sS'rain'
p297
I482
sS'hand'
p298
I201
sS'waterfall'
p299
I430
sS'characters'
p300
I456
sS'kid'
p301
I312
sS'smokes'
p302
I1378
sS'ocean'
p303
I113
sS'practices'
p304
I1368
sS'mother'
p305
I1330
sS'the'
p306
I4
sS'left'
p307
I695
sS'sleeps'
p308
I1280
sS'photo'
p309
I389
sS'goggles'
p310
I355
sS'thumbs'
p311
I1430
sS'human'
p312
I1063
sS'lasso'
p313
I1477
sS'dining'
p314
I736
sS'furry'
p315
I549
sS'hay'
p316
I1029
sS'board'
p317
I373
sS'basketball'
p318
I152
sS'has'
p319
I131
sS'hat'
p320
I63
sS'casting'
p321
I1210
sS'boxer'
p322
I684
sS'background'
p323
I76
sS'forested'
p324
I917
sS'cape'
p325
I1519
sS'poses'
p326
I221
sS'performing'
p327
I265
sS'steps'
p328
I278
sS'night'
p329
I273
sS'right'
p330
I420
sS'petting'
p331
I467
sS'creek'
p332
I1212
sS'crowd'
p333
I75
sS'people'
p334
I27
sS'elderly'
p335
I338
sS'election'
p336
I1346
sS'billboard'
p337
I1290
sS'for'
p338
I74
sS'bottom'
p339
I1517
sS'purple'
p340
I204
sS'ice'
p341
I226
sS'icy'
p342
I879
sS'skateboarder'
p343
I602
sS'christmas'
p344
I1514
sS'shakes'
p345
I1043
sS'corn'
p346
I1554
sS'pose'
p347
I275
sS'post'
p348
I1354
sS'cowboy'
p349
I966
sS'dinner'
p350
I1302
sS'bath'
p351
I1508
sS'float'
p352
I1306
sS'two'
p353
I25
sS'down'
p354
I40
sS'lies'
p355
I438
sS'magazines'
p356
I988
sS'old'
p357
I524
sS'waits'
p358
I1338
sS'streght'
p359
I829
sS'tennis'
p360
I92
sS'fight'
p361
I642
sS'way'
p362
I924
sS'head'
p363
I166
sS'parasails'
p364
I1171
sS'offering'
p365
I919
sS'snowy'
p366
I130
sS'removes'
p367
I926
sS'diaper'
p368
I1353
sS'middleeastern'
p369
I1493
sS'nerf'
p370
I1156
sS'hikers'
p371
I1010
sS'attached'
p372
I838
sS'bouncy'
p373
I975
sS'lays'
p374
I963
sS'brightly'
p375
I908
sS'sticks'
p376
I1428
sS'bathrobe'
p377
I1067
sS'covers'
p378
I884
sS'floating'
p379
I1221
sS'outstretched'
p380
I860
sS'no'
p381
I1349
sS'clings'
p382
I823
sS'setting'
p383
I1308
sS'holding'
p384
I51
sS'tie'
p385
I388
sS'fronmt'
p386
I1051
sS'broen'
p387
I1328
sS'picture'
p388
I163
sS'football'
p389
I173
sS'together'
p390
I194
sS'jacket'
p391
I80
sS'teeth'
p392
I510
sS'push'
p393
I1118
sS'banners'
p394
I755
sS'slope'
p395
I691
sS'blackandwhite'
p396
I1095
sS'dance'
p397
I559
sS'skis'
p398
I362
sS'horseback'
p399
I1476
sS'skate'
p400
I603
sS'skiing'
p401
I419
sS'chair'
p402
I267
sS'midst'
p403
I1121
sS'ballet'
p404
I1035
sS'jogger'
p405
I539
sS'father'
p406
I460
sS'flowered'
p407
I626
sS'bicycler'
p408
I1435
sS'brown'
p409
I16
sS'protective'
p410
I1013
sS'tricycle'
p411
I717
sS'gun'
p412
I331
sS'bikers'
p413
I619
sS'item'
p414
I1138
sS'subway'
p415
I832
sS'teal'
p416
I649
sS'team'
p417
I255
sS'guy'
p418
I157
sS'stifflyposed'
p419
I786
sS'says'
p420
I434
sS'tackler'
p421
I1516
sS'sign'
p422
I213
sS'run'
p423
I190
sS'rough'
p424
I607
sS'drinks'
p425
I1094
sS'stands'
p426
I83
sS'uniform'
p427
I200
sS'goes'
p428
I254
sS'international'
p429
I1447
sS'falling'
p430
I431
sS'crashing'
p431
I913
sS'trampoline'
p432
I325
sS'splits'
p433
I1441
sS'climbs'
p434
I305
sS'french'
p435
I1466
sS'water'
p436
I20
sS'baseball'
p437
I134
sS'along'
p438
I117
sS'box'
p439
I568
sS'boy'
p440
I12
sS'battling'
p441
I1040
sS'dusty'
p442
I987
sS'bow'
p443
I820
sS'teenage'
p444
I503
sS'whiel'
p445
I1116
sS'kayak'
p446
I397
sS'snowboard'
p447
I252
sS'seashore'
p448
I912
sS'fake'
p449
I805
sS'market'
p450
I259
sS'russell'
p451
I722
sS'sports'
p452
I376
sS'going'
p453
I1436
sS'andy'
p454
I1424
sS'somersault'
p455
I1548
sS'entrance'
p456
I851
sS'scratches'
p457
I915
sS'fly'
p458
I505
sS'car'
p459
I192
sS'cap'
p460
I283
sS'cat'
p461
I449
sS'can'
p462
I1183
sS'following'
p463
I1503
sS'making'
p464
I391
sS'bites'
p465
I453
sS'admired'
p466
I1197
sS'grassy'
p467
I122
sS'stream'
p468
I198
sS'parachute'
p469
I1490
sS'groucho'
p470
I1537
sS'posing'
p471
I404
sS'admires'
p472
I704
sS'pond'
p473
I554
sS'clothing'
p474
I241
sS'magenta'
p475
I1057
sS'pink'
p476
I55
sS'winter'
p477
I665
sS'sword'
p478
I472
sS'skates'
p479
I571
sS'tile'
p480
I777
sS'staircase'
p481
I578
sS'birthday'
p482
I1026
sS'headscarf'
p483
I508
sS'man'
p484
I10
sS'classroom'
p485
I1546
sS'surfing'
p486
I332
sS'neck'
p487
I1414
sS'candles'
p488
I1025
sS'st'
p489
I1483
sS'truck'
p490
I327
sS'african'
p491
I1231
sS'tall'
p492
I587
sS'pulled'
p493
I1173
sS'blowup'
p494
I1104
sS'vike'
p495
I1557
sS'tagged'
p496
I593
sS'shoes'
p497
I495
sS'wishing'
p498
I1401
sS'playful'
p499
I1278
sS'course'
p500
I410
sS'cold'
p501
I1096
sS'birds'
p502
I1229
sS'group'
p503
I32
sS'curly'
p504
I775
sS'willow'
p505
I801
sS'curls'
p506
I1499
sS'platform'
p507
I1568
sS'window'
p508
I1215
sS'main'
p509
I935
sS'apron'
p510
I1292
sS'scaling'
p511
I1295
sS'half'
p512
I1099
sS'feathered'
p513
I779
sS'runners'
p514
I1297
sS'rock'
p515
I106
sS'hardhat'
p516
I552
sS'amnesty'
p517
I1446
sS'cliffs'
p518
I1014
sS'square'
p519
I1533
sS'retrieve'
p520
I709
sS'catching'
p521
I580
sS'girl'
p522
I14
sS'amusement'
p523
I754
sS'living'
p524
I643
sS'shown'
p525
I911
sS'space'
p526
I1279
sS'tulips'
p527
I885
sS'someplace'
p528
I986
sS'shows'
p529
I734
sS'eagle'
p530
I1434
sS'hula'
p531
I1052
sS'cars'
p532
I1196
sS'cart'
p533
I574
sS'headband'
p534
I422
sS'training'
p535
I533
sS'headphones'
p536
I1351
sS'turn'
p537
I763
sS'place'
p538
I999
sS'swing'
p539
I182
sS'view'
p540
I500
sS'first'
p541
I1167
sS'flying'
p542
I193
sS'waves'
p543
I225
sS'one'
p544
I64
sS'long'
p545
I287
sS'suspended'
p546
I758
sS'spanish'
p547
I994
sS'chubby'
p548
I1250
sS'ring'
p549
I854
sS'open'
p550
I478
sS'guitarists'
p551
I1165
sS'sheep'
p552
I1019
sS'city'
p553
I143
sS'little'
p554
I48
sS'murky'
p555
I1135
sS'bite'
p556
I776
sS'plastic'
p557
I418
sS'fiery'
p558
I1461
sS'white'
p559
I15
sS'frame'
p560
I599
sS'gives'
p561
I610
sS'eyes'
p562
I364
sS'hug'
p563
I868
sS'mostly'
p564
I1322
sS'that'
p565
I140
sS'shawl'
p566
I790
sS'flowers'
p567
I421
sS'photographic'
p568
I1000
sS'than'
p569
I1004
sS'wide'
p570
I891
sS'television'
p571
I1103
sS'sailing'
p572
I1109
sS'karate'
p573
I493
sS'college'
p574
I1207
sS'tractor'
p575
I1316
sS'and'
p576
I5
sS'greyhound'
p577
I888
sS'buried'
p578
I550
sS'occupied'
p579
I886
sS'hooded'
p580
I441
sS'sewing'
p581
I1393
sS'zoo'
p582
I1091
sS'equipment'
p583
I1001
sS'breakdancer'
p584
I1189
sS'take'
p585
I843
sS'upside'
p586
I585
sS'surf'
p587
I1348
sS'multiple'
p588
I1383
sS'track'
p589
I212
sS'enter'
p590
I1404
sS'falls'
p591
I833
sS'printed'
p592
I700
sS'tugging'
p593
I527
sS'lawn'
p594
I1022
sS'boys'
p595
I100
sS'sunset'
p596
I423
sS'wind'
p597
I560
sS'shop'
p598
I1246
sS'walking'
p599
I47
sS'shot'
p600
I671
sS'show'
p601
I927
sS'german'
p602
I387
sS'bright'
p603
I306
sS'ground'
p604
I115
sS'fend'
p605
I765
sS'outside'
p606
I93
sS'only'
p607
I575
sS'wood'
p608
I1049
sS'black'
p609
I13
sS'hockey'
p610
I446
sS'robe'
p611
I566
sS'get'
p612
I394
sS'spraying'
p613
I1009
sS'dye'
p614
I1360
sS'stroll'
p615
I531
sS'leather'
p616
I659
sS'naked'
p617
I426
sS'priest'
p618
I1333
sS'pants'
p619
I214
sS'where'
p620
I1180
sS'inside'
p621
I293
sS'picnic'
p622
I764
sS'concert'
p623
I1223
sS'bounds'
p624
I297
sS'asleep'
p625
I831
sS'diver'
p626
I1505
sS'bicyclist'
p627
I185
sS'crooked'
p628
I1367
sS'behind'
p629
I82
sS'between'
p630
I1258
sS'enjoys'
p631
I1266
sS'reading'
p632
I1061
sS'across'
p633
I89
sS'checkered'
p634
I1521
sS'screen'
p635
I1214
sS'guitar'
p636
I288
sS'tug'
p637
I1202
sS'rugby'
p638
I303
sS'many'
p639
I243
sS'region'
p640
I948
sS'expression'
p641
I846
sS'backpack'
p642
I656
sS'comes'
p643
I639
sS'nearby'
p644
I227
sS'among'
p645
I424
sS'stretches'
p646
I944
sS'passenger'
p647
I1422
sS'jeans'
p648
I246
sS'pilings'
p649
I1187
sS'pole'
p650
I343
sS'learning'
p651
I1544
sS'twig'
p652
I821
sS'boat'
p653
I176
sS'teammate'
p654
I934
sS'teddy'
p655
I1181
sS'canoers'
p656
I1286
sS'breath'
p657
I1089
sS'helicopter'
p658
I810
sS'marx'
p659
I1538
sS'shopping'
p660
I650
sS'tiger'
p661
I1105
sS'bmw'
p662
I1047
sS'bmx'
p663
I358
sS'spiderman'
p664
I1123
sS'trick'
p665
I135
sS'canoes'
p666
I1535
sS'vest'
p667
I515
sS'punches'
p668
I1498
sS'canoe'
p669
I606
sS'ridable'
p670
I1050
sS'coffee'
p671
I1329
sS'middle'
p672
I258
sS'bags'
p673
I871
sS'different'
p674
I978
sS'paw'
p675
I957
sS'bowl'
p676
I858
sS'same'
p677
I542
sS'shute'
p678
I907
sS'pan'
p679
I1489
sS'running'
p680
I42
sS'fruit'
p681
I1185
sS'statue'
p682
I1471
sS'climbing'
p683
I107
sS'mohawk'
p684
I1433
sS'floor'
p685
I437
sS'bottle'
p686
I276
sS'pitbull'
p687
I668
sS'model'
p688
I925
sS'outdoor'
p689
I333
sS'being'
p690
I148
sS'dancers'
p691
I1133
sS'neon'
p692
I491
sS'kneeling'
p693
I612
sS'snowboarder'
p694
I1219
sS'seems'
p695
I1003
sS'except'
p696
I748
sS'beagle'
p697
I1252
sS'bloe'
p698
I971
sS'pile'
p699
I399
sS'skier'
p700
I620
sS'swim'
p701
I454
sS'around'
p702
I104
sS'sumo'
p703
I1324
sS'overlooks'
p704
I492
sS'traffic'
p705
I512
sS'stunt'
p706
I480
sS'railroad'
p707
I1237
sS'lady'
p708
I156
sS'towel'
p709
I1347
sS'facing'
p710
I972
sS'audience'
p711
I535
sS'competition'
p712
I494
sS'cowboys'
p713
I1475
sS'diving'
p714
I523
sS'matching'
p715
I667
sS'dumps'
p716
I1402
sS'dancefloor'
p717
I1442
sS'wristband'
p718
I792
sS'tube'
p719
I1090
sS'exit'
p720
I1281
sS'blondehaired'
p721
I973
sS'doggy'
p722
I1405
sS'squabble'
p723
I715
sS'business'
p724
I623
sS'nails'
p725
I1452
sS'fitness'
p726
I1531
sS'volkswagen'
p727
I1193
sS'sniffs'
p728
I1062
sS'on'
p729
I7
sS'stone'
p730
I320
sS'joyfully'
p731
I750
sS'of'
p732
I9
sS'meal'
p733
I1055
sS'stand'
p734
I165
sS'or'
p735
I318
sS'road'
p736
I187
sS'ladies'
p737
I746
sS'instruments'
p738
I660
sS'earring'
p739
I1536
sS'harness'
p740
I300
sS'homeless'
p741
I475
sS'tropical'
p742
I1451
sS'log'
p743
I551
sS'her'
p744
I77
sS'area'
p745
I188
sS'there'
p746
I1518
sS'low'
p747
I1319
sS'lot'
p748
I624
sS'valley'
p749
I663
sS'bubble'
p750
I1507
sS'buggy'
p751
I1361
sS'pitcher'
p752
I933
sS'bookstore'
p753
I1482
sS'sled'
p754
I294
sS'cottage'
p755
I1389
sS'trying'
p756
I290
sS'with'
p757
I11
sS'pull'
p758
I931
sS'bucket'
p759
I350
sS'grass'
p760
I46
sS'wristbands'
p761
I839
sS'watches'
p762
I149
sS'an'
p763
I26
sS'tshirt'
p764
I666
sS'at'
p765
I19
sS'walks'
p766
I138
sS'watched'
p767
I558
sS'cream'
p768
I1263
sS'binocular'
p769
I1217
sS'field'
p770
I53
sS'rollerblading'
p771
I1033
sS'trash'
p772
I870
sS'vocabulary'
p773
I1545
sS'midair'
p774
I155
sS'beaks'
p775
I1230
sS'waving'
p776
I1444
sS'poodle'
p777
I1467
sS'decorated'
p778
I369
sS'pool'
p779
I86
sS'building'
p780
I125
sS'tricks'
p781
I1220
sS'groom'
p782
I836
sS'mask'
p783
I804
sS'seat'
p784
I1374
sS'peeks'
p785
I840
sS'growling'
p786
I1087
sS'all'
p787
I621
sS'motocross'
p788
I686
sS'skeleton'
p789
I699
sS'pointing'
p790
I628
sS'gown'
p791
I1412
sS'suburban'
p792
I1419
sS'expressions'
p793
I1059
sS'children'
p794
I58
sS'carpet'
p795
I471
sS'chain'
p796
I1251
sS'tv'
p797
I980
sS'to'
p798
I17
sS'chewing'
p799
I958
sS'fountain'
p800
I251
sS'enjoying'
p801
I611
sS'woman'
p802
I22
sS'sitting'
p803
I45
sS'very'
p804
I308
sS'robes'
p805
I953
sS'simpsons'
p806
I1128
sS'fan'
p807
I634
sS'bubbles'
p808
I761
sS'squirted'
p809
I1397
sS'laying'
p810
I260
sS'large'
p811
I50
sS'sand'
p812
I102
sS'saxophone'
p813
I770
sS'small'
p814
I127
sS'fence'
p815
I240
sS'grabs'
p816
I1007
sS'past'
p817
I1304
sS'pass'
p818
I1085
sS'casual'
p819
I816
sS'swampy'
p820
I1129
sS'sun'
p821
I1147
sS'dribbling'
p822
I1373
sS'burgundy'
p823
I914
sS'abs'
p824
I1291
sS'racing'
p825
I224
sS'public'
p826
I1500
sS'tattoos'
p827
I964
sS'full'
p828
I864
sS'leaping'
p829
I180
sS'surfer'
p830
I1247
sS'tracks'
p831
I959
sS'cylindrical'
p832
I1028
sS'threeway'
p833
I1201
sS'trunk'
p834
I1100
sS'colored'
p835
I381
sS'airport'
p836
I1339
sS'narrow'
p837
I796
sS'exited'
p838
I1287
sS'followed'
p839
I1244
sS'family'
p840
I161
sS'clapping'
p841
I808
sS'layer'
p842
I1473
sS'backed'
p843
I517
sS'aimed'
p844
I1534
sS'trained'
p845
I1469
sS'toys'
p846
I455
sS'pulls'
p847
I396
sS'dachshund'
p848
I834
sS'eye'
p849
I1565
sS'takes'
p850
I231
sS'bicycles'
p851
I749
sS'piggyback'
p852
I1391
sS'raft'
p853
I553
sS'horses'
p854
I662
sS'bushes'
p855
I1431
sS'brighty'
p856
I1131
sS'door'
p857
I1406
sS'ejected'
p858
I714
sS'company'
p859
I1140
sS'kayakers'
p860
I1285
sS'flag'
p861
I468
sS'stick'
p862
I146
sS'town'
p863
I1239
sS'mall'
p864
I1209
sS'wrestler'
p865
I672
sS'male'
p866
I589
sS'marble'
p867
I852
sS'beautiful'
p868
I269
sS'pony'
p869
I464
sS'pushes'
p870
I451
sS'autumn'
p871
I1271
sS'pushed'
p872
I778
sS'emitting'
p873
I1463
sS'sharp'
p874
I769
sS'airplane'
p875
I564
sS'dress'
p876
I238
sS'huge'
p877
I1248
sS'court'
p878
I1006
sS'goal'
p879
I653
sS'hugs'
p880
I921
sS'goat'
p881
I1235
sS'creature'
p882
I1073
sS'helmet'
p883
I235
sS'countryside'
p884
I436
sS'tries'
p885
I203
sS'plane'
p886
I811
sS'coming'
p887
I281
sS'backyard'
p888
I1126
sS'horizontal'
p889
I1561
sS'short'
p890
I658
sS'crowded'
p891
I637
sS'coat'
p892
I280
sS'register'
p893
I1529
sS'eats'
p894
I452
sS'volleyball'
p895
I442
sS'shore'
p896
I366
sS'inline'
p897
I904
sS'playing'
p898
I38
sS'woodland'
p899
I1382
sS'cyclists'
p900
I877
sS'held'
p901
I1245
sS'paper'
p902
I1524
sS'through'
p903
I36
sS'signs'
p904
I415
sS'hell'
p905
I1008
sS'smiling'
p906
I315
sS'its'
p907
I84
sS'bout'
p908
I1327
sS'soccer'
p909
I160
sS'crawls'
p910
I1048
sS'someone'
p911
I448
sS'food'
p912
I655
sS'peeing'
p913
I992
sS'snowball'
p914
I1178
sS'foot'
p915
I487
sS'ninja'
p916
I1562
sS'bigger'
p917
I1289
sS'chairlift'
p918
I562
sS'kayaking'
p919
I946
sS'evade'
p920
I1515
sS'swimsuit'
p921
I498
sS'goofy'
p922
I837
sS'fairy'
p923
I1036
sS'heavy'
p924
I1021
sS'house'
p925
I641
sS'fish'
p926
I292
sS'hard'
p927
I1423
sS'democrat'
p928
I1344
sS'event'
p929
I1060
sS'flower'
p930
I326
sS'missed'
p931
I1242
sS'surrounded'
p932
I218
sS'acting'
p933
I1092
sS'safety'
p934
I532
sS'hill'
p935
I158
sS'print'
p936
I902
sS'jacketed'
p937
I1082
sS'caucasian'
p938
I1238
sS'startseq'
p939
I1
sS'bald'
p940
I245
sS'dirt'
p941
I103
sS'canvasses'
p942
I1439
sS'crouches'
p943
I1385
sS'base'
p944
I488
sS'cookie'
p945
I1170
sS'members'
p946
I1341
sS'put'
p947
I1213
sS'sidewalk'
p948
I237
sS'thrown'
p949
I1283
sS'thread'
p950
I1312
sS'blossoming'
p951
I1396
sS'rollerblades'
p952
I1152
sS'american'
p953
I353
sS'snowboarding'
p954
I617
sS'fallen'
p955
I598
sS'throws'
p956
I284
sS'forwards'
p957
I956
sS'feel'
p958
I1492
sS'girls'
p959
I94
sS'jogs'
p960
I1394
sS'number'
p961
I565
sS'fancy'
p962
I928
sS'feet'
p963
I604
sS'fierce'
p964
I845
sS'sailor'
p965
I799
sS'airborne'
p966
I591
sS'horse'
p967
I354
sS'heads'
p968
I1556
sS'threatening'
p969
I1274
sS'hangs'
p970
I584
sS'pinned'
p971
I1400
sS'paint'
p972
I501
sS'leash'
p973
I577
sS'station'
p974
I960
sS'store'
p975
I407
sS'squirts'
p976
I949
sS'park'
p977
I110
sS'part'
p978
I1497
sS'boots'
p979
I1363
sS'stairs'
p980
I393
sS'stirs'
p981
I1075
sS'kind'
p982
I1074
sS'grey'
p983
I183
sS'recording'
p984
I1551
sS'bride'
p985
I543
sS'determined'
p986
I1474
sS'outdoors'
p987
I261
sS'toward'
p988
I346
sS'booth'
p989
I1179
sS'uniforms'
p990
I349
sS'mossy'
p991
I706
sS'juice'
p992
I1234
sS'graffiti'
p993
I411
sS'blond'
p994
I136
sS'mountain'
p995
I128
sS'built'
p996
I1042
sS'dancing'
p997
I1125
sS'henna'
p998
I1225
sS'camouflage'
p999
I1299
sS'couch'
p1000
I170
sS'lifts'
p1001
I797
sS'plungles'
p1002
I802
sS'play'
p1003
I172
sS'towards'
p1004
I279
sS'electric'
p1005
I432
sS'flute'
p1006
I1020
sS'cigarette'
p1007
I412
sS'moss'
p1008
I853
sS'nothing'
p1009
I747
sS'extremely'
p1010
I751
sS'patterned'
p1011
I880
sS'chested'
p1012
I844
sS'clean'
p1013
I701
sS'barren'
p1014
I351
sS'tubes'
p1015
I990
sS'lying'
p1016
I630
sS'golf'
p1017
I1369
sS'asphalt'
p1018
I985
sS'hugging'
p1019
I688
sS'woooden'
p1020
I1261
sS'corgie'
p1021
I1567
sS'giant'
p1022
I644
sS'scooter'
p1023
I561
sS'shepherd'
p1024
I567
sS'his'
p1025
I21
sS'hit'
p1026
I1426
sS'sunny'
p1027
I506
sS'trees'
p1028
I352
sS'batter'
p1029
I1240
sS'preparing'
p1030
I1259
sS'closely'
p1031
I1462
sS'during'
p1032
I302
sS'him'
p1033
I151
sS'catches'
p1034
I685
sS'catcher'
p1035
I725
sS'motorcycles'
p1036
I1216
sS'sleeve'
p1037
I1321
sS'neckdeep'
p1038
I1071
sS'paddling'
p1039
I676
sS'gloves'
p1040
I1191
sS'river'
p1041
I363
sS'scenery'
p1042
I1012
sS'bars'
p1043
I1084
sS'set'
p1044
I296
sS'stump'
p1045
I547
sS'throwing'
p1046
I342
sS'lion'
p1047
I1472
sS'bare'
p1048
I544
sS'are'
p1049
I18
sS'nations'
p1050
I1384
sS'arm'
p1051
I1486
sS'pictures'
p1052
I1392
sS'won'
p1053
I1184
sS'various'
p1054
I1164
sS'skislope'
p1055
I1070
sS'tricycles'
p1056
I1203
sS'outfit'
p1057
I477
sS'spray'
p1058
I1137
sS'floats'
p1059
I766
sS'both'
p1060
I681
sS'folding'
p1061
I970
sS'restaurant'
p1062
I856
sS'barely'
p1063
I705
sS'intercept'
p1064
I1370
sS'flies'
p1065
I291
sS'church'
p1066
I402
sS'belt'
p1067
I1325
sS'hitting'
p1068
I636
sS'brick'
p1069
I228
sS'empty'
p1070
I295
sS'resting'
p1071
I1064
sS'flight'
p1072
I872
sS'fire'
p1073
I313
sS'gap'
p1074
I1502
sS'racer'
p1075
I485
sS'races'
p1076
I616
sS'plants'
p1077
I638
sS'look'
p1078
I209
sS'balloons'
p1079
I1512
sS'rope'
p1080
I191
sS'bikini'
p1081
I675
sS'kick'
p1082
I922
sS'leaning'
p1083
I541
sS'kissing'
p1084
I1413
sS'biking'
p1085
I579
sS'pack'
p1086
I1494
sS'leans'
p1087
I344
sS'ducks'
p1088
I520
sS'reads'
p1089
I1334
sS'itself'
p1090
I1044
sS'ready'
p1091
I627
sS'funny'
p1092
I824
sS'waterside'
p1093
I1188
sS'fetching'
p1094
I657
sS'makeshift'
p1095
I1388
sS'widely'
p1096
I882
sS'higher'
p1097
I597
sS'hallway'
p1098
I1464
sS'fastens'
p1099
I1456
sS'cigar'
p1100
I806
sS'moving'
p1101
I372
sS'bungeejumping'
p1102
I1114
sS'dark'
p1103
I361
sS'older'
p1104
I465
sS'picks'
p1105
I507
sS'person'
p1106
I62
sS'edge'
p1107
I230
sS'flags'
p1108
I377
sS'grins'
p1109
I793
sS'cave'
p1110
I865
sS'pigeons'
p1111
I867
sS'using'
p1112
I1041
sS'cut'
p1113
I1320
sS'cup'
p1114
I476
sS'kites'
p1115
I943
sS'excited'
p1116
I1058
sS'surprised'
p1117
I1310
sS'parasurfing'
p1118
I759
sS'big'
p1119
I137
sS'skateboards'
p1120
I697
sS'game'
p1121
I184
sS'shephard'
p1122
I817
sS'uphill'
p1123
I1501
sS'glove'
p1124
I726
sS'tireshaped'
p1125
I1267
sS'cones'
p1126
I1264
sS'spring'
p1127
I1054
sS'duck'
p1128
I1093
sS'some'
p1129
I70
sS'back'
p1130
I232
sS'endseq'
p1131
I2
sS'mirror'
p1132
I600
sS'cannonball'
p1133
I724
sS'jewelry'
p1134
I783
sS'ornate'
p1135
I993
sS'be'
p1136
I359
sS'eating'
p1137
I1262
sS'jumps'
p1138
I67
sS'costumes'
p1139
I440
sS'step'
p1140
I1277
sS'upraised'
p1141
I727
sS'by'
p1142
I44
sS'violins'
p1143
I897
sS'completing'
p1144
I1530
sS'plaza'
p1145
I1106
sS'graduation'
p1146
I1411
sS'surfers'
p1147
I1563
sS'block'
p1148
I670
sS'into'
p1149
I39
sS'placing'
p1150
I782
sS'lone'
p1151
I285
sS'fast'
p1152
I416
sS'suit'
p1153
I169
sS'opens'
p1154
I509
sS'mountains'
p1155
I272
sS'himself'
p1156
I930
sS'cloth'
p1157
I965
sS'line'
p1158
I1211
sS'relaxes'
p1159
I1337
sS'lilypads'
p1160
I1307
sS'up'
p1161
I41
sS'un'
p1162
I728
sS'cartwheel'
p1163
I1352
sS'adults'
p1164
I405
sS'rally'
p1165
I618
sS'curl'
p1166
I1459
sS'dragging'
p1167
I1257
sS'halfpipe'
p1168
I1015
sS'rainbow'
p1169
I757
sS'nap'
p1170
I828
sS'smiles'
p1171
I383
sS'spectators'
p1172
I335
sS'crouching'
p1173
I708
sS'firetruck'
p1174
I1550
sS'breasts'
p1175
I781
sS'helping'
p1176
I631
sS'desert'
p1177
I1298
sS'structure'
p1178
I450
sS'overlooking'
p1179
I429
sS'vehicles'
p1180
I1175
sS'opposing'
p1181
I499
sS'having'
p1182
I647
sS'wrestle'
p1183
I581
sS'squats'
p1184
I548
sS'splashing'
p1185
I530
sS'amplifier'
p1186
I1504
sS'go'
p1187
I1149
sS'dumbbell'
p1188
I744
sS'gi'
p1189
I1336
sS'young'
p1190
I91
sS'suits'
p1191
I682
sS'does'
p1192
I199
sS'frisbees'
p1193
I795
sS'gravel'
p1194
I1078
sS'wave'
p1195
I208
sS'crosses'
p1196
I1387
sS'putting'
p1197
I1162
sS'huddles'
p1198
I1496
sS'drinking'
p1199
I1523
sS'attempts'
p1200
I1403
sS'try'
p1201
I1139
sS'race'
p1202
I205
sS'smaller'
p1203
I830
sS'folds'
p1204
I1343
sS'wrestling'
p1205
I661
sS'mural'
p1206
I981
sS'jump'
p1207
I207
sS'blowing'
p1208
I760
sS'video'
p1209
I1079
sS'enclosed'
p1210
I998
sS'pajamas'
p1211
I1031
sS'plays'
p1212
I164
sS'dirtcovered'
p1213
I1454
sS'waiting'
p1214
I345
sS'indian'
p1215
I1224
sS'attire'
p1216
I1108
sS'kayaker'
p1217
I526
sS'bird'
p1218
I217
sS'body'
p1219
I195
sS'shoreline'
p1220
I1120
sS'gathered'
p1221
I398
sS'pushing'
p1222
I1326
sS'busy'
p1223
I271
sS'others'
p1224
I444
sS'cyclist'
p1225
I590
sS'climb'
p1226
I646
sS'makes'
p1227
I457
sS'ruin'
p1228
I995
sS'wig'
p1229
I1318
sS'heart'
p1230
I1288
sS'untangles'
p1231
I1066
sS'cheerleader'
p1232
I1282
sS'singing'
p1233
I674
sS'cloud'
p1234
I1076
sS'standing'
p1235
I30
sS'from'
p1236
I59
sS'next'
p1237
I87
sS'few'
p1238
I518
sS'camera'
p1239
I167
sS'weeping'
p1240
I800
sS'themselves'
p1241
I996
sS'stage'
p1242
I1445
sS'formally'
p1243
I1525
sS'musician'
p1244
I1039
sS'trail'
p1245
I1163
sS'carrying'
p1246
I150
sS'baby'
p1247
I90
sS'women'
p1248
I289
sS'balls'
p1249
I857
sS'animals'
p1250
I1377
sS'tunnel'
p1251
I525
sS'ride'
p1252
I202
sS'subdivsion'
p1253
I1395
sS'redhaired'
p1254
I1243
sS'thin'
p1255
I683
sS'fetch'
p1256
I679
sS'control'
p1257
I680
sS'tap'
p1258
I962
sS'bent'
p1259
I1002
sS'reeds'
p1260
I1130
sS'billboards'
p1261
I687
sS'high'
p1262
I186
sS'pulling'
p1263
I466
sS'something'
p1264
I141
sS'tan'
p1265
I242
sS'trumpet'
p1266
I1069
sS'sit'
p1267
I469
sS'skirt'
p1268
I458
sS'holds'
p1269
I96
sS'tightrope'
p1270
I1144
sS'lamp'
p1271
I719
sS'camels'
p1272
I1112
sS'forest'
p1273
I613
sS'animal'
p1274
I901
sS'toddler'
p1275
I223
sS'establishment'
p1276
I791
sS'onlookers'
p1277
I601
sS'buildings'
p1278
I573
sS'halter'
p1279
I1541
sS'farm'
p1280
I1376
sS'waters'
p1281
I819
sS'tied'
p1282
I1407
sS'tattoo'
p1283
I1485
sS'bluff'
p1284
I869
sS'ethnic'
p1285
I1569
sS'belongings'
p1286
I866
sS'terrier'
p1287
I723
sS'chasing'
p1288
I197
sS'light'
p1289
I262
sS'counter'
p1290
I519
sS'robot'
p1291
I1255
sS'necklace'
p1292
I752
sS'lined'
p1293
I1448
sS'bathing'
p1294
I248
sS'africans'
p1295
I961
sS'whilst'
p1296
I371
sS'looks'
p1297
I120
sS'frying'
p1298
I1488
sS'bunch'
p1299
I403
sS'underwater'
p1300
I1088
sS'broom'
p1301
I694
sS'squatting'
p1302
I762
sS'orange'
p1303
I88
sS'covered'
p1304
I108
sS'belted'
p1305
I1113
sS'surrounds'
p1306
I1355
sS'material'
p1307
I813
sS'dock'
p1308
I486
sS'kiss'
p1309
I1142
sS'hands'
p1310
I264
sS'flea'
p1311
I1335
sS'day'
p1312
I310
sS'stunts'
p1313
I741
sS'scenic'
p1314
I918
sS'sniffing'
p1315
I847
sS'slide'
p1316
I249
sS'crossing'
p1317
I1553
sS'shaking'
p1318
I321
sS'glasses'
p1319
I147
sS'showering'
p1320
I1480
sS'doing'
p1321
I116
sS'chunk'
p1322
I1390
sS'books'
p1323
I731
sS'sweatshirt'
p1324
I413
sS'sandy'
p1325
I629
sS'out'
p1326
I78
sS'littered'
p1327
I1016
sS'rigging'
p1328
I997
sS'defend'
p1329
I1371
sS'playground'
p1330
I162
sS'performs'
p1331
I479
sS'burka'
p1332
I1543
sS'red'
p1333
I23
sS'umbrella'
p1334
I707
sS'hopscotch'
p1335
I1160
sS'pours'
p1336
I979
sS'attending'
p1337
I1154
sS'approaches'
p1338
I1269
sS'masks'
p1339
I1513
sS'retriever'
p1340
I1254
sS'backwards'
p1341
I1365
sS'yard'
p1342
I347
sS'skateboard'
p1343
I99
sS'keep'
p1344
I1296
sS'chicken'
p1345
I528
sS'brides'
p1346
I1380
sS'biting'
p1347
I348
sS'scarf'
p1348
I392
sS'scene'
p1349
I490
sS'reaches'
p1350
I360
sS'owner'
p1351
I380
sS'blows'
p1352
I1024
sS'potrait'
p1353
I1526
sS'bears'
p1354
I1182
sS'chased'
p1355
I365
sS'their'
p1356
I81
sS'pottypotty'
p1357
I1350
sS'wrapped'
p1358
I1276
sS'chases'
p1359
I379
sS'graffitied'
p1360
I1027
sS'beard'
p1361
I678
sS'stomach'
p1362
I1200
sS'gear'
p1363
I328
sS'shorts'
p1364
I234
sS'bulldog'
p1365
I1159
sS'shallow'
p1366
I876
sS'motorcycle'
p1367
I356
sS'excercises'
p1368
I859
sS'reflecting'
p1369
I1146
sS'bellysurfing'
p1370
I1270
sS'fuzzy'
p1371
I716
sS'policeman'
p1372
I1440
sS'herself'
p1373
I557
sS'labradoodle'
p1374
I1119
sS'catered'
p1375
I1301
sS'bed'
p1376
I304
sS'bee'
p1377
I822
sS'rodderick'
p1378
I1425
sS'sculpture'
p1379
I785
sS'teenagers'
p1380
I1127
sS'tide'
p1381
I1110
sS'defending'
p1382
I1218
sS'have'
p1383
I596
sS'microphone'
p1384
I447
sS'mountainous'
p1385
I947
sS'mid'
p1386
I890
sS'purchasing'
p1387
I1528
sS'which'
p1388
I1143
sS'mountaintop'
p1389
I1056
sS'soar'
p1390
I753
sS'bohemians'
p1391
I1342
sS'who'
p1392
I1372
sS'eight'
p1393
I855
sS'gallery'
p1394
I898
sS'cellphone'
p1395
I439
sS'gather'
p1396
I322
sS'face'
p1397
I101
sS'pipe'
p1398
I1379
sS'skinny'
p1399
I1366
sS'painting'
p1400
I1206
sS'kite'
p1401
I417
sS'kiddie'
p1402
I511
sS'biker'
p1403
I105
sS'bikes'
p1404
I556
sS'seaweed'
p1405
I588
sS'spindle'
p1406
I1313
sS'tire'
p1407
I298
sS'bug'
p1408
I1194
sS'bernard'
p1409
I1484
sS'arabian'
p1410
I1364
sS'riding'
p1411
I97
sS'surfs'
p1412
I1458
sS'photographs'
p1413
I1134
sS'cube'
p1414
I850
sS'watching'
p1415
I257
sS'crumbling'
p1416
I788
sS'striped'
p1417
I222
sS'handgun'
p1418
I1151
sS'gray'
p1419
I1227
sS'she'
p1420
I400
sS'caches'
p1421
I771
sS'spotted'
p1422
I301
sS'puddle'
p1423
I614
sS'officials'
p1424
I951
sS'skateboarding'
p1425
I329
sS'racket'
p1426
I382
sS'closes'
p1427
I883
sS'wire'
p1428
I1275
sS'interacting'
p1429
I1260
sS'attempting'
p1430
I374
sS'closed'
p1431
I743
sS'routine'
p1432
I878
sS'progress'
p1433
I1208
sS'tent'
p1434
I474
sS'ends'
p1435
I1429
sS'courtyard'
p1436
I1198
sS'kicking'
p1437
I1098
sS'police'
p1438
I534
sS'staring'
p1439
I664
sS'hits'
p1440
I609
sS'sniff'
p1441
I1465
sS'taking'
p1442
I220
sS'ramp'
p1443
I124
sS'doorway'
p1444
I1068
sS'jersey'
p1445
I889
sS'wall'
p1446
I178
sS'denim'
p1447
I409
sS'walk'
p1448
I123
sS'table'
p1449
I263
sS'pouring'
p1450
I481
sS'motorbike'
p1451
I586
sS'muddy'
p1452
I576
sS'int'
p1453
I739
sS'windsurfs'
p1454
I1161
sS'treat'
p1455
I395
sS'shoulders'
p1456
I1443
sS'painted'
p1457
I780
sS'controller'
p1458
I887
sS'kicks'
p1459
I1204
sS'smoking'
p1460
I570
sS'abandoned'
p1461
I789
sS'plain'
p1462
I1265
sS'runway'
p1463
I1410
sS'as'
p1464
I68
sS'will'
p1465
I1399
sS'readies'
p1466
I873
sS'waterskies'
p1467
I1172
sS'surface'
p1468
I357
sS'blownup'
p1469
I974
sS'swinging'
p1470
I692
sS'sits'
p1471
I114
sS'headfirst'
p1472
I1450
sS'vintage'
p1473
I1195
sS'balloon'
p1474
I385
sS'cross'
p1475
I1011
sS'digging'
p1476
I1236
sS'party'
p1477
I710
sS'gets'
p1478
I316
sS'ball'
p1479
I34
sS'bale'
p1480
I1030
sS'drink'
p1481
I625
sS'binoculars'
p1482
I1386
sS'dust'
p1483
I1077
sS'collar'
p1484
I153
sS'off'
p1485
I66
sS'surfboard'
p1486
I540
sS'well'
p1487
I677
sS'fighting'
p1488
I483
sS'cries'
p1489
I633
sS'twirl'
p1490
I1427
sS'position'
p1491
I1177
sS'bending'
p1492
I514
sS'coaster'
p1493
I497
sS'innertube'
p1494
I1176
sS'front'
p1495
I37
sS'fishing'
p1496
I651
sS'seats'
p1497
I942
sS'sky'
p1498
I936
sS'lake'
p1499
I179
sS'bench'
p1500
I145
sS'other'
p1501
I79
sS'wet'
p1502
I632
sS'ski'
p1503
I640
sS'match'
p1504
I1111
sS'five'
p1505
I787
sS'facial'
p1506
I1415
sS'desk'
p1507
I977
sS'pier'
p1508
I652
sS'puppy'
p1509
I433
sS'showing'
p1510
I910
sS'like'
p1511
I473
sS'chairs'
p1512
I1023
sS'clown'
p1513
I1300
sS'soft'
p1514
I1122
sS'obsured'
p1515
I1460
sS'hair'
p1516
I154
sS'hissing'
p1517
I1086
sS'dunes'
p1518
I1362
sS'lean'
p1519
I1539
sS'fedex'
p1520
I1174
sS'campfire'
p1521
I689
sS'blurry'
p1522
I690
sS'stairway'
p1523
I991
sS'hose'
p1524
I863
sS'reaching'
p1525
I967
sS'hiding'
p1526
I825
sS'about'
p1527
I250
sS'boards'
p1528
I1564
sS'getting'
p1529
I1303
sS'carries'
p1530
I340
sS'carrier'
p1531
I1046
sS'beige'
p1532
I334
sS'puppies'
p1533
I546
sS'upward'
p1534
I733
sS'swimming'
p1535
I181
sS'converging'
p1536
I1005
sS'own'
p1537
I1420
sS'gymnastic'
p1538
I807
sS'washington'
p1539
I1358
sS'guard'
p1540
I1555
sS'weather'
p1541
I1097
sS'brush'
p1542
I1510
sS'female'
p1543
I317
sS'fourwheeler'
p1544
I940
sS'friends'
p1545
I572
sS'dolphins'
p1546
I1449
sS'cricket'
p1547
I1241
sS'bus'
p1548
I256
sS'construction'
p1549
I861
sS'bun'
p1550
I976
sS'ear'
p1551
I484
sS'eat'
p1552
I1232
sS'he'
p1553
I189
sS'places'
p1554
I809
sS'flip'
p1555
I1311
sS'excitement'
p1556
I1190
sS'cake'
p1557
I1542
sS'piece'
p1558
I812
sS'skating'
p1559
I384
sS'bearing'
p1560
I1148
sS'nurses'
p1561
I841
sS'kisses'
p1562
I1222
sS'utensils'
p1563
I1273
sS'boardwalk'
p1564
I1331
sS'shooting'
p1565
I635
sS'balcony'
p1566
I745
sS'dressed'
p1567
I98
sS'book'
p1568
I673
sS'ledge'
p1569
I339
sS'frisbee'
p1570
I177
sS'star'
p1571
I1417
sS'mulch'
p1572
I814
sS'apportioned'
p1573
I1520
sS'extravagantlyhaired'
p1574
I784
sS'veil'
p1575
I899
sS'cliff'
p1576
I253
sS'hiker'
p1577
I555
sS'sash'
p1578
I1470
sS'buoy'
p1579
I849
ssS'char_level'
p1580
I00
sS'word_counts'
p1581
ccollections
OrderedDict
p1582
((lp1583
(lp1584
g939
aI1000
aa(lp1585
g788
aI1
aa(lp1586
g1403
aI14
aa(lp1587
g1065
aI4
aa(lp1588
g283
aI525
aa(lp1589
g306
aI393
aa(lp1590
g276
aI33
aa(lp1591
g729
aI241
aa(lp1592
g1025
aI73
aa(lp1593
g20
aI18
aa(lp1594
g1131
aI1000
aa(lp1595
g1265
aI5
aa(lp1596
g203
aI233
aa(lp1597
g99
aI46
aa(lp1598
g903
aI46
aa(lp1599
g770
aI31
aa(lp1600
g757
aI176
aa(lp1601
g1129
aI24
aa(lp1602
g1014
aI3
aa(lp1603
g1028
aI3
aa(lp1604
g323
aI22
aa(lp1605
g273
aI49
aa(lp1606
g1138
aI25
aa(lp1607
g1149
aI44
aa(lp1608
g779
aI18
aa(lp1609
g1464
aI25
aa(lp1610
g484
aI182
aa(lp1611
g1297
aI12
aa(lp1612
g1333
aI72
aa(lp1613
g515
aI14
aa(lp1614
g683
aI14
aa(lp1615
g194
aI11
aa(lp1616
g869
aI2
aa(lp1617
g42
aI61
aa(lp1618
g763
aI65
aa(lp1619
g1104
aI2
aa(lp1620
g576
aI257
aa(lp1621
g74
aI6
aa(lp1622
g734
aI9
aa(lp1623
g1237
aI18
aa(lp1624
g798
aI82
aa(lp1625
g744
aI22
aa(lp1626
g639
aI5
aa(lp1627
g334
aI63
aa(lp1628
g1235
aI57
aa(lp1629
g803
aI36
aa(lp1630
g38
aI28
aa(lp1631
g1495
aI45
aa(lp1632
g732
aI212
aa(lp1633
g1261
aI1
aa(lp1634
g811
aI33
aa(lp1635
g559
aI101
aa(lp1636
g1218
aI6
aa(lp1637
g1263
aI2
aa(lp1638
g926
aI4
aa(lp1639
g1326
aI21
aa(lp1640
g436
aI74
aa(lp1641
g331
aI2
aa(lp1642
g544
aI26
aa(lp1643
g522
aI113
aa(lp1644
g279
aI245
aa(lp1645
g1019
aI1
aa(lp1646
g158
aI38
aa(lp1647
g953
aI3
aa(lp1648
g861
aI2
aa(lp1649
g503
aI50
aa(lp1650
g1267
aI2
aa(lp1651
g112
aI2
aa(lp1652
g1521
aI1
aa(lp1653
g1522
aI1
aa(lp1654
g621
aI4
aa(lp1655
g795
aI2
aa(lp1656
g829
aI8
aa(lp1657
g1535
aI8
aa(lp1658
g440
aI131
aa(lp1659
g542
aI7
aa(lp1660
g354
aI42
aa(lp1661
g191
aI29
aa(lp1662
g1304
aI14
aa(lp1663
g395
aI1
aa(lp1664
g754
aI4
aa(lp1665
g1470
aI1
aa(lp1666
g478
aI2
aa(lp1667
g182
aI1
aa(lp1668
g1411
aI16
aa(lp1669
g1301
aI1
aa(lp1670
g1511
aI2
aa(lp1671
g967
aI3
aa(lp1672
g1070
aI4
aa(lp1673
g802
aI73
aa(lp1674
g25
aI5
aa(lp1675
g307
aI1
aa(lp1676
g390
aI7
aa(lp1677
g217
aI59
aa(lp1678
g310
aI3
aa(lp1679
g932
aI6
aa(lp1680
g1142
aI37
aa(lp1681
g1501
aI21
aa(lp1682
g794
aI29
aa(lp1683
g1106
aI27
aa(lp1684
g295
aI1
aa(lp1685
g1356
aI20
aa(lp1686
g363
aI9
aa(lp1687
g1434
aI2
aa(lp1688
g1044
aI4
aa(lp1689
g1161
aI42
aa(lp1690
g366
aI11
aa(lp1691
g741
aI2
aa(lp1692
g426
aI19
aa(lp1693
g609
aI130
aa(lp1694
g1120
aI1
aa(lp1695
g30
aI6
aa(lp1696
g1500
aI10
aa(lp1697
g624
aI4
aa(lp1698
g51
aI12
aa(lp1699
g384
aI33
aa(lp1700
g1114
aI2
aa(lp1701
g165
aI1
aa(lp1702
g789
aI1
aa(lp1703
g592
aI1
aa(lp1704
g1057
aI2
aa(lp1705
g1013
aI1
aa(lp1706
g1367
aI3
aa(lp1707
g940
aI5
aa(lp1708
g1442
aI6
aa(lp1709
g233
aI1
aa(lp1710
g1219
aI7
aa(lp1711
g1236
aI29
aa(lp1712
g1239
aI9
aa(lp1713
g409
aI94
aa(lp1714
g907
aI19
aa(lp1715
g198
aI23
aa(lp1716
g550
aI2
aa(lp1717
g236
aI1
aa(lp1718
g680
aI41
aa(lp1719
g467
aI12
aa(lp1720
g1468
aI3
aa(lp1721
g320
aI27
aa(lp1722
g472
aI1
aa(lp1723
g1063
aI1
aa(lp1724
g1567
aI16
aa(lp1725
g40
aI69
aa(lp1726
g102
aI55
aa(lp1727
g648
aI5
aa(lp1728
g326
aI6
aa(lp1729
g991
aI1
aa(lp1730
g127
aI5
aa(lp1731
g1331
aI2
aa(lp1732
g706
aI2
aa(lp1733
g663
aI3
aa(lp1734
g319
aI11
aa(lp1735
g160
aI11
aa(lp1736
g1334
aI1
aa(lp1737
g1448
aI12
aa(lp1738
g1450
aI2
aa(lp1739
g297
aI2
aa(lp1740
g353
aI66
aa(lp1741
g169
aI28
aa(lp1742
g1049
aI79
aa(lp1743
g1488
aI2
aa(lp1744
g111
aI26
aa(lp1745
g1173
aI1
aa(lp1746
g303
aI13
aa(lp1747
g229
aI24
aa(lp1748
g760
aI34
aa(lp1749
g1551
aI2
aa(lp1750
g265
aI7
aa(lp1751
g391
aI21
aa(lp1752
g1471
aI13
aa(lp1753
g1407
aI4
aa(lp1754
g539
aI8
aa(lp1755
g33
aI9
aa(lp1756
g1075
aI2
aa(lp1757
g1443
aI12
aa(lp1758
g520
aI1
aa(lp1759
g862
aI10
aa(lp1760
g1477
aI1
aa(lp1761
g146
aI4
aa(lp1762
g31
aI1
aa(lp1763
g1485
aI26
aa(lp1764
g1308
aI2
aa(lp1765
g812
aI15
aa(lp1766
g93
aI25
aa(lp1767
g246
aI1
aa(lp1768
g1319
aI10
aa(lp1769
g740
aI4
aa(lp1770
g633
aI17
aa(lp1771
g106
aI30
aa(lp1772
g39
aI1
aa(lp1773
g1294
aI5
aa(lp1774
g1153
aI9
aa(lp1775
g690
aI10
aa(lp1776
g858
aI1
aa(lp1777
g1316
aI5
aa(lp1778
g1422
aI4
aa(lp1779
g723
aI1
aa(lp1780
g1371
aI1
aa(lp1781
g411
aI1
aa(lp1782
g1247
aI17
aa(lp1783
g131
aI11
aa(lp1784
g1000
aI9
aa(lp1785
g228
aI1
aa(lp1786
g1271
aI1
aa(lp1787
g1190
aI17
aa(lp1788
g1417
aI6
aa(lp1789
g1288
aI7
aa(lp1790
g107
aI1
aa(lp1791
g27
aI1
aa(lp1792
g451
aI1
aa(lp1793
g1287
aI1
aa(lp1794
g468
aI7
aa(lp1795
g983
aI8
aa(lp1796
g290
aI9
aa(lp1797
g1192
aI7
aa(lp1798
g1133
aI1
aa(lp1799
g762
aI10
aa(lp1800
g1035
aI1
aa(lp1801
g427
aI7
aa(lp1802
g604
aI13
aa(lp1803
g1124
aI1
aa(lp1804
g1141
aI1
aa(lp1805
g1032
aI4
aa(lp1806
g437
aI11
aa(lp1807
g1121
aI8
aa(lp1808
g1162
aI1
aa(lp1809
g108
aI1
aa(lp1810
g915
aI2
aa(lp1811
g944
aI2
aa(lp1812
g1527
aI5
aa(lp1813
g1136
aI3
aa(lp1814
g181
aI2
aa(lp1815
g638
aI4
aa(lp1816
g1376
aI4
aa(lp1817
g159
aI1
aa(lp1818
g1323
aI1
aa(lp1819
g627
aI8
aa(lp1820
g1275
aI6
aa(lp1821
g1003
aI9
aa(lp1822
g800
aI5
aa(lp1823
g780
aI12
aa(lp1824
g1321
aI13
aa(lp1825
g665
aI11
aa(lp1826
g447
aI5
aa(lp1827
g1343
aI16
aa(lp1828
g994
aI11
aa(lp1829
g1576
aI5
aa(lp1830
g1246
aI10
aa(lp1831
g166
aI1
aa(lp1832
g1119
aI11
aa(lp1833
g338
aI23
aa(lp1834
g1033
aI10
aa(lp1835
g318
aI10
aa(lp1836
g281
aI33
aa(lp1837
g1534
aI1
aa(lp1838
g298
aI7
aa(lp1839
g1350
aI3
aa(lp1840
g1479
aI49
aa(lp1841
g1103
aI3
aa(lp1842
g1349
aI2
aa(lp1843
g529
aI1
aa(lp1844
g692
aI2
aa(lp1845
g43
aI1
aa(lp1846
g314
aI1
aa(lp1847
g766
aI11
aa(lp1848
g825
aI6
aa(lp1849
g360
aI17
aa(lp1850
g177
aI14
aa(lp1851
g176
aI1
aa(lp1852
g398
aI3
aa(lp1853
g14
aI11
aa(lp1854
g606
aI17
aa(lp1855
g434
aI4
aa(lp1856
g259
aI1
aa(lp1857
g565
aI11
aa(lp1858
g704
aI2
aa(lp1859
g1041
aI3
aa(lp1860
g959
aI17
aa(lp1861
g573
aI2
aa(lp1862
g712
aI2
aa(lp1863
g1453
aI1
aa(lp1864
g47
aI1
aa(lp1865
g603
aI4
aa(lp1866
g497
aI2
aa(lp1867
g1313
aI1
aa(lp1868
g11
aI31
aa(lp1869
g35
aI1
aa(lp1870
g255
aI2
aa(lp1871
g1493
aI2
aa(lp1872
g1484
aI10
aa(lp1873
g629
aI20
aa(lp1874
g428
aI5
aa(lp1875
g562
aI3
aa(lp1876
g1431
aI1
aa(lp1877
g921
aI2
aa(lp1878
g389
aI9
aa(lp1879
g1355
aI3
aa(lp1880
g1181
aI2
aa(lp1881
g417
aI5
aa(lp1882
g1188
aI1
aa(lp1883
g293
aI17
aa(lp1884
g896
aI3
aa(lp1885
g277
aI24
aa(lp1886
g438
aI13
aa(lp1887
g15
aI4
aa(lp1888
g1566
aI1
aa(lp1889
g804
aI4
aa(lp1890
g1262
aI8
aa(lp1891
g540
aI2
aa(lp1892
g737
aI1
aa(lp1893
g1009
aI1
aa(lp1894
g696
aI1
aa(lp1895
g972
aI2
aa(lp1896
g851
aI1
aa(lp1897
g237
aI2
aa(lp1898
g444
aI2
aa(lp1899
g595
aI16
aa(lp1900
g736
aI8
aa(lp1901
g731
aI1
aa(lp1902
g1010
aI1
aa(lp1903
g155
aI2
aa(lp1904
g1292
aI1
aa(lp1905
g458
aI2
aa(lp1906
g1390
aI1
aa(lp1907
g178
aI3
aa(lp1908
g523
aI1
aa(lp1909
g977
aI14
aa(lp1910
g1252
aI7
aa(lp1911
g941
aI15
aa(lp1912
g195
aI4
aa(lp1913
g1269
aI17
aa(lp1914
g248
aI3
aa(lp1915
g898
aI45
aa(lp1916
g745
aI8
aa(lp1917
g1548
aI5
aa(lp1918
g778
aI3
aa(lp1919
g394
aI1
aa(lp1920
g206
aI1
aa(lp1921
g1169
aI1
aa(lp1922
g244
aI3
aa(lp1923
g546
aI1
aa(lp1924
g1118
aI1
aa(lp1925
g1296
aI3
aa(lp1926
g1101
aI3
aa(lp1927
g317
aI3
aa(lp1928
g1415
aI5
aa(lp1929
g543
aI6
aa(lp1930
g1027
aI2
aa(lp1931
g1312
aI4
aa(lp1932
g1208
aI1
aa(lp1933
g808
aI1
aa(lp1934
g1397
aI16
aa(lp1935
g341
aI6
aa(lp1936
g266
aI14
aa(lp1937
g1302
aI1
aa(lp1938
g1105
aI2
aa(lp1939
g765
aI78
aa(lp1940
g1516
aI10
aa(lp1941
g1430
aI3
aa(lp1942
g537
aI1
aa(lp1943
g644
aI6
aa(lp1944
g622
aI1
aa(lp1945
g202
aI4
aa(lp1946
g197
aI3
aa(lp1947
g452
aI3
aa(lp1948
g885
aI7
aa(lp1949
g605
aI1
aa(lp1950
g1059
aI1
aa(lp1951
g774
aI10
aa(lp1952
g672
aI5
aa(lp1953
g271
aI1
aa(lp1954
g476
aI31
aa(lp1955
g483
aI2
aa(lp1956
g599
aI34
aa(lp1957
g340
aI7
aa(lp1958
g1154
aI2
aa(lp1959
g72
aI1
aa(lp1960
g874
aI1
aa(lp1961
g392
aI2
aa(lp1962
g12
aI12
aa(lp1963
g554
aI34
aa(lp1964
g301
aI4
aa(lp1965
g702
aI15
aa(lp1966
g1402
aI2
aa(lp1967
g708
aI10
aa(lp1968
g705
aI2
aa(lp1969
g813
aI1
aa(lp1970
g1073
aI4
aa(lp1971
g161
aI2
aa(lp1972
g26
aI4
aa(lp1973
g906
aI4
aa(lp1974
g1421
aI1
aa(lp1975
g204
aI1
aa(lp1976
g98
aI1
aa(lp1977
g1202
aI7
aa(lp1978
g418
aI10
aa(lp1979
g1478
aI4
aa(lp1980
g1069
aI6
aa(lp1981
g136
aI1
aa(lp1982
g450
aI5
aa(lp1983
g504
aI1
aa(lp1984
g138
aI6
aa(lp1985
g556
aI1
aa(lp1986
g1303
aI18
aa(lp1987
g189
aI9
aa(lp1988
g480
aI1
aa(lp1989
g810
aI5
aa(lp1990
g872
aI1
aa(lp1991
g513
aI1
aa(lp1992
g1492
aI2
aa(lp1993
g1457
aI1
aa(lp1994
g1175
aI1
aa(lp1995
g935
aI10
aa(lp1996
g13
aI10
aa(lp1997
g667
aI2
aa(lp1998
g144
aI2
aa(lp1999
g843
aI2
aa(lp2000
g1108
aI3
aa(lp2001
g909
aI10
aa(lp2002
g263
aI3
aa(lp2003
g1150
aI1
aa(lp2004
g1134
aI1
aa(lp2005
g1574
aI1
aa(lp2006
g1543
aI4
aa(lp2007
g1379
aI1
aa(lp2008
g735
aI4
aa(lp2009
g419
aI1
aa(lp2010
g1505
aI1
aa(lp2011
g48
aI14
aa(lp2012
g78
aI4
aa(lp2013
g1416
aI1
aa(lp2014
g1461
aI1
aa(lp2015
g566
aI1
aa(lp2016
g987
aI5
aa(lp2017
g1238
aI2
aa(lp2018
g1290
aI2
aa(lp2019
g1276
aI1
aa(lp2020
g718
aI1
aa(lp2021
g1109
aI1
aa(lp2022
g1553
aI8
aa(lp2023
g1264
aI11
aa(lp2024
g17
aI1
aa(lp2025
g1088
aI2
aa(lp2026
g1193
aI1
aa(lp2027
g190
aI2
aa(lp2028
g1359
aI3
aa(lp2029
g1351
aI3
aa(lp2030
g1289
aI5
aa(lp2031
g835
aI3
aa(lp2032
g837
aI1
aa(lp2033
g1001
aI1
aa(lp2034
g1426
aI3
aa(lp2035
g1171
aI3
aa(lp2036
g220
aI7
aa(lp2037
g1449
aI5
aa(lp2038
g268
aI2
aa(lp2039
g287
aI1
aa(lp2040
g714
aI2
aa(lp2041
g357
aI2
aa(lp2042
g730
aI4
aa(lp2043
g1318
aI4
aa(lp2044
g965
aI1
aa(lp2045
g423
aI8
aa(lp2046
g1396
aI4
aa(lp2047
g183
aI4
aa(lp2048
g1240
aI1
aa(lp2049
g505
aI1
aa(lp2050
g1559
aI3
aa(lp2051
g1251
aI2
aa(lp2052
g1217
aI2
aa(lp2053
g1002
aI1
aa(lp2054
g130
aI11
aa(lp2055
g180
aI1
aa(lp2056
g783
aI1
aa(lp2057
g449
aI1
aa(lp2058
g1100
aI1
aa(lp2059
g1538
aI1
aa(lp2060
g841
aI1
aa(lp2061
g1310
aI5
aa(lp2062
g1554
aI1
aa(lp2063
g658
aI1
aa(lp2064
g814
aI12
aa(lp2065
g886
aI1
aa(lp2066
g593
aI2
aa(lp2067
g1558
aI1
aa(lp2068
g1307
aI1
aa(lp2069
g1345
aI2
aa(lp2070
g1572
aI1
aa(lp2071
g327
aI5
aa(lp2072
g22
aI1
aa(lp2073
g221
aI5
aa(lp2074
g1474
aI3
aa(lp2075
g109
aI2
aa(lp2076
g153
aI4
aa(lp2077
g143
aI3
aa(lp2078
g1185
aI2
aa(lp2079
g819
aI1
aa(lp2080
g840
aI10
aa(lp2081
g615
aI2
aa(lp2082
g934
aI2
aa(lp2083
g535
aI2
aa(lp2084
g1438
aI2
aa(lp2085
g602
aI3
aa(lp2086
g1122
aI1
aa(lp2087
g1207
aI7
aa(lp2088
g711
aI2
aa(lp2089
g171
aI1
aa(lp2090
g432
aI4
aa(lp2091
g1281
aI1
aa(lp2092
g1107
aI6
aa(lp2093
g553
aI11
aa(lp2094
g249
aI2
aa(lp2095
g443
aI1
aa(lp2096
g385
aI3
aa(lp2097
g309
aI3
aa(lp2098
g652
aI1
aa(lp2099
g1377
aI1
aa(lp2100
g382
aI1
aa(lp2101
g930
aI4
aa(lp2102
g64
aI3
aa(lp2103
g490
aI4
aa(lp2104
g464
aI3
aa(lp2105
g1092
aI1
aa(lp2106
g147
aI2
aa(lp2107
g1526
aI1
aa(lp2108
g1348
aI3
aa(lp2109
g274
aI9
aa(lp2110
g179
aI1
aa(lp2111
g104
aI2
aa(lp2112
g1330
aI10
aa(lp2113
g294
aI1
aa(lp2114
g850
aI6
aa(lp2115
g1170
aI1
aa(lp2116
g995
aI12
aa(lp2117
g1363
aI4
aa(lp2118
g405
aI2
aa(lp2119
g980
aI3
aa(lp2120
g359
aI1
aa(lp2121
g1486
aI2
aa(lp2122
g1195
aI7
aa(lp2123
g612
aI3
aa(lp2124
g1455
aI3
aa(lp2125
g1203
aI1
aa(lp2126
g280
aI13
aa(lp2127
g1083
aI2
aa(lp2128
g402
aI5
aa(lp2129
g847
aI3
aa(lp2130
g1080
aI8
aa(lp2131
g677
aI2
aa(lp2132
g55
aI5
aa(lp2133
g625
aI1
aa(lp2134
g415
aI1
aa(lp2135
g591
aI1
aa(lp2136
g446
aI3
aa(lp2137
g868
aI5
aa(lp2138
g848
aI1
aa(lp2139
g89
aI1
aa(lp2140
g459
aI8
aa(lp2141
g985
aI2
aa(lp2142
g782
aI1
aa(lp2143
g1078
aI7
aa(lp2144
g922
aI1
aa(lp2145
g388
aI10
aa(lp2146
g1425
aI4
aa(lp2147
g1048
aI2
aa(lp2148
g60
aI2
aa(lp2149
g372
aI1
aa(lp2150
g761
aI1
aa(lp2151
g232
aI5
aa(lp2152
g785
aI1
aa(lp2153
g1561
aI1
aa(lp2154
g1533
aI2
aa(lp2155
g68
aI1
aa(lp2156
g1212
aI10
aa(lp2157
g65
aI4
aa(lp2158
g412
aI4
aa(lp2159
g585
aI1
aa(lp2160
g162
aI11
aa(lp2161
g1045
aI2
aa(lp2162
g1012
aI1
aa(lp2163
g964
aI1
aa(lp2164
g641
aI1
aa(lp2165
g1184
aI2
aa(lp2166
g315
aI2
aa(lp2167
g1315
aI1
aa(lp2168
g28
aI1
aa(lp2169
g1130
aI6
aa(lp2170
g1579
aI1
aa(lp2171
g242
aI6
aa(lp2172
g1223
aI5
aa(lp2173
g653
aI9
aa(lp2174
g1155
aI5
aa(lp2175
g1364
aI6
aa(lp2176
g1414
aI1
aa(lp2177
g456
aI1
aa(lp2178
g867
aI1
aa(lp2179
g578
aI2
aa(lp2180
g1008
aI1
aa(lp2181
g549
aI1
aa(lp2182
g743
aI2
aa(lp2183
g1393
aI1
aa(lp2184
g1221
aI3
aa(lp2185
g329
aI5
aa(lp2186
g1062
aI1
aa(lp2187
g699
aI3
aa(lp2188
g1249
aI1
aa(lp2189
g1420
aI3
aa(lp2190
g250
aI3
aa(lp2191
g676
aI1
aa(lp2192
g1368
aI1
aa(lp2193
g67
aI5
aa(lp2194
g380
aI1
aa(lp2195
g1066
aI3
aa(lp2196
g44
aI7
aa(lp2197
g1549
aI1
aa(lp2198
g516
aI2
aa(lp2199
g117
aI1
aa(lp2200
g1524
aI1
aa(lp2201
g853
aI2
aa(lp2202
g828
aI1
aa(lp2203
g486
aI4
aa(lp2204
g1110
aI1
aa(lp2205
g1286
aI1
aa(lp2206
g1111
aI1
aa(lp2207
g563
aI1
aa(lp2208
g347
aI5
aa(lp2209
g473
aI2
aa(lp2210
g1577
aI2
aa(lp2211
g1284
aI1
aa(lp2212
g1404
aI2
aa(lp2213
g154
aI7
aa(lp2214
g772
aI1
aa(lp2215
g673
aI1
aa(lp2216
g1072
aI1
aa(lp2217
g689
aI4
aa(lp2218
g686
aI5
aa(lp2219
g333
aI23
aa(lp2220
g54
aI5
aa(lp2221
g1466
aI1
aa(lp2222
g1373
aI2
aa(lp2223
g59
aI1
aa(lp2224
g201
aI1
aa(lp2225
g1366
aI1
aa(lp2226
g1532
aI4
aa(lp2227
g900
aI1
aa(lp2228
g767
aI2
aa(lp2229
g1172
aI4
aa(lp2230
g1299
aI3
aa(lp2231
g397
aI2
aa(lp2232
g1432
aI1
aa(lp2233
g342
aI1
aa(lp2234
g597
aI2
aa(lp2235
g883
aI6
aa(lp2236
g1011
aI1
aa(lp2237
g296
aI1
aa(lp2238
g471
aI3
aa(lp2239
g1023
aI2
aa(lp2240
g1096
aI1
aa(lp2241
g1427
aI1
aa(lp2242
g378
aI1
aa(lp2243
g527
aI1
aa(lp2244
g137
aI4
aa(lp2245
g589
aI7
aa(lp2246
g918
aI2
aa(lp2247
g579
aI1
aa(lp2248
g258
aI2
aa(lp2249
g875
aI2
aa(lp2250
g1458
aI1
aa(lp2251
g577
aI1
aa(lp2252
g1445
aI1
aa(lp2253
g961
aI2
aa(lp2254
g1386
aI1
aa(lp2255
g1164
aI3
aa(lp2256
g328
aI5
aa(lp2257
g29
aI3
aa(lp2258
g611
aI2
aa(lp2259
g570
aI1
aa(lp2260
g270
aI1
aa(lp2261
g209
aI1
aa(lp2262
g235
aI1
aa(lp2263
g1004
aI5
aa(lp2264
g122
aI1
aa(lp2265
g80
aI1
aa(lp2266
g1143
aI1
aa(lp2267
g1394
aI1
aa(lp2268
g1024
aI2
aa(lp2269
g439
aI2
aa(lp2270
g975
aI3
aa(lp2271
g1570
aI9
aa(lp2272
g1575
aI1
aa(lp2273
g62
aI2
aa(lp2274
g231
aI3
aa(lp2275
g254
aI1
aa(lp2276
g1274
aI1
aa(lp2277
g936
aI1
aa(lp2278
g892
aI5
aa(lp2279
g1460
aI2
aa(lp2280
g157
aI1
aa(lp2281
g897
aI1
aa(lp2282
g479
aI2
aa(lp2283
g1545
aI2
aa(lp2284
g222
aI6
aa(lp2285
g262
aI1
aa(lp2286
g239
aI1
aa(lp2287
g887
aI5
aa(lp2288
g83
aI4
aa(lp2289
g678
aI1
aa(lp2290
g1447
aI3
aa(lp2291
g1278
aI2
aa(lp2292
g500
aI3
aa(lp2293
g993
aI3
aa(lp2294
g375
aI1
aa(lp2295
g533
aI2
aa(lp2296
g607
aI2
aa(lp2297
g168
aI1
aa(lp2298
g1510
aI1
aa(lp2299
g119
aI5
aa(lp2300
g1007
aI3
aa(lp2301
g525
aI1
aa(lp2302
g1452
aI2
aa(lp2303
g973
aI2
aa(lp2304
g448
aI1
aa(lp2305
g431
aI1
aa(lp2306
g335
aI4
aa(lp2307
g823
aI1
aa(lp2308
g457
aI1
aa(lp2309
g238
aI1
aa(lp2310
g460
aI5
aa(lp2311
g324
aI1
aa(lp2312
g481
aI2
aa(lp2313
g948
aI6
aa(lp2314
g16
aI13
aa(lp2315
g422
aI7
aa(lp2316
g1314
aI1
aa(lp2317
g1324
aI3
aa(lp2318
g76
aI3
aa(lp2319
g904
aI3
aa(lp2320
g365
aI1
aa(lp2321
g145
aI1
aa(lp2322
g880
aI1
aa(lp2323
g1082
aI1
aa(lp2324
g1152
aI3
aa(lp2325
g261
aI1
aa(lp2326
g362
aI1
aa(lp2327
g688
aI1
aa(lp2328
g367
aI1
aa(lp2329
g601
aI1
aa(lp2330
g962
aI1
aa(lp2331
g876
aI6
aa(lp2332
g247
aI1
aa(lp2333
g1156
aI1
aa(lp2334
g260
aI6
aa(lp2335
g758
aI1
aa(lp2336
g1401
aI3
aa(lp2337
g557
aI3
aa(lp2338
g1085
aI2
aa(lp2339
g521
aI2
aa(lp2340
g1183
aI2
aa(lp2341
g196
aI1
aa(lp2342
g752
aI1
aa(lp2343
g956
aI5
aa(lp2344
g654
aI1
aa(lp2345
g1151
aI5
aa(lp2346
g1569
aI4
aa(lp2347
g509
aI1
aa(lp2348
g401
aI3
aa(lp2349
g330
aI3
aa(lp2350
g1498
aI1
aa(lp2351
g73
aI1
aa(lp2352
g289
aI2
aa(lp2353
g208
aI2
aa(lp2354
g227
aI1
aa(lp2355
g970
aI2
aa(lp2356
g586
aI2
aa(lp2357
g81
aI1
aa(lp2358
g1451
aI2
aa(lp2359
g492
aI2
aa(lp2360
g567
aI3
aa(lp2361
g619
aI7
aa(lp2362
g1544
aI1
aa(lp2363
g121
aI1
aa(lp2364
g1497
aI1
aa(lp2365
g1405
aI2
aa(lp2366
g1115
aI1
aa(lp2367
g534
aI3
aa(lp2368
g646
aI1
aa(lp2369
g596
aI3
aa(lp2370
g866
aI2
aa(lp2371
g257
aI1
aa(lp2372
g1225
aI2
aa(lp2373
g966
aI2
aa(lp2374
g199
aI2
aa(lp2375
g919
aI1
aa(lp2376
g1385
aI1
aa(lp2377
g640
aI1
aa(lp2378
g976
aI1
aa(lp2379
g210
aI1
aa(lp2380
g496
aI2
aa(lp2381
g1424
aI1
aa(lp2382
g252
aI1
aa(lp2383
g805
aI1
aa(lp2384
g10
aI1
aa(lp2385
g103
aI1
aa(lp2386
g188
aI2
aa(lp2387
g645
aI3
aa(lp2388
g957
aI1
aa(lp2389
g675
aI1
aa(lp2390
g799
aI1
aa(lp2391
g132
aI3
aa(lp2392
g831
aI1
aa(lp2393
g974
aI1
aa(lp2394
g1295
aI1
aa(lp2395
g1258
aI1
aa(lp2396
g1530
aI4
aa(lp2397
g374
aI1
aa(lp2398
g617
aI3
aa(lp2399
g827
aI1
aa(lp2400
g1157
aI1
aa(lp2401
g1446
aI9
aa(lp2402
g349
aI1
aa(lp2403
g1525
aI1
aa(lp2404
g224
aI1
aa(lp2405
g213
aI1
aa(lp2406
g1061
aI1
aa(lp2407
g245
aI3
aa(lp2408
g173
aI2
aa(lp2409
g97
aI4
aa(lp2410
g698
aI1
aa(lp2411
g710
aI1
aa(lp2412
g721
aI1
aa(lp2413
g1469
aI1
aa(lp2414
g373
aI1
aa(lp2415
g1550
aI1
aa(lp2416
g1507
aI1
aa(lp2417
g1046
aI4
aa(lp2418
g674
aI1
aa(lp2419
g815
aI6
aa(lp2420
g1336
aI1
aa(lp2421
g110
aI3
aa(lp2422
g124
aI5
aa(lp2423
g797
aI1
aa(lp2424
g1206
aI1
aa(lp2425
g75
aI1
aa(lp2426
g275
aI1
aa(lp2427
g57
aI1
aa(lp2428
g1018
aI1
aa(lp2429
g528
aI1
aa(lp2430
g442
aI1
aa(lp2431
g356
aI1
aa(lp2432
g1383
aI2
aa(lp2433
g212
aI1
aa(lp2434
g1015
aI1
aa(lp2435
g1523
aI1
aa(lp2436
g1179
aI3
aa(lp2437
g299
aI3
aa(lp2438
g913
aI1
aa(lp2439
g430
aI3
aa(lp2440
g1135
aI1
aa(lp2441
g547
aI1
aa(lp2442
g1228
aI1
aa(lp2443
g1241
aI1
aa(lp2444
g650
aI4
aa(lp2445
g1328
aI1
aa(lp2446
g1210
aI1
aa(lp2447
g538
aI1
aa(lp2448
g568
aI1
aa(lp2449
g583
aI1
aa(lp2450
g1259
aI1
aa(lp2451
g695
aI1
aa(lp2452
g1097
aI2
aa(lp2453
g569
aI1
aa(lp2454
g1005
aI3
aa(lp2455
g1509
aI3
aa(lp2456
g1536
aI1
aa(lp2457
g955
aI2
aa(lp2458
g878
aI1
aa(lp2459
g816
aI1
aa(lp2460
g560
aI2
aa(lp2461
g420
aI3
aa(lp2462
g905
aI1
aa(lp2463
g1132
aI2
aa(lp2464
g613
aI1
aa(lp2465
g371
aI1
aa(lp2466
g1475
aI1
aa(lp2467
g126
aI3
aa(lp2468
g1042
aI1
aa(lp2469
g410
aI1
aa(lp2470
g884
aI3
aa(lp2471
g518
aI1
aa(lp2472
g1168
aI1
aa(lp2473
g1327
aI1
aa(lp2474
g1277
aI2
aa(lp2475
g545
aI5
aa(lp2476
g343
aI2
aa(lp2477
g163
aI1
aa(lp2478
g36
aI1
aa(lp2479
g400
aI2
aa(lp2480
g552
aI1
aa(lp2481
g1006
aI1
aa(lp2482
g636
aI5
aa(lp2483
g924
aI1
aa(lp2484
g594
aI1
aa(lp2485
g1512
aI1
aa(lp2486
g963
aI2
aa(lp2487
g1352
aI1
aa(lp2488
g488
aI1
aa(lp2489
g482
aI1
aa(lp2490
g1360
aI1
aa(lp2491
g832
aI1
aa(lp2492
g316
aI1
aa(lp2493
g1480
aI1
aa(lp2494
g1211
aI1
aa(lp2495
g82
aI1
aa(lp2496
g771
aI1
aa(lp2497
g133
aI1
aa(lp2498
g404
aI1
aa(lp2499
g923
aI1
aa(lp2500
g214
aI1
aa(lp2501
g85
aI1
aa(lp2502
g230
aI2
aa(lp2503
g1087
aI4
aa(lp2504
g1244
aI1
aa(lp2505
g669
aI2
aa(lp2506
g441
aI1
aa(lp2507
g424
aI2
aa(lp2508
g1112
aI1
aa(lp2509
g91
aI2
aa(lp2510
g996
aI1
aa(lp2511
g345
aI1
aa(lp2512
g1090
aI1
aa(lp2513
g53
aI1
aa(lp2514
g1531
aI1
aa(lp2515
g662
aI1
aa(lp2516
g910
aI1
aa(lp2517
g608
aI1
aa(lp2518
g685
aI3
aa(lp2519
g670
aI1
aa(lp2520
g386
aI1
aa(lp2521
g1440
aI2
aa(lp2522
g531
aI1
aa(lp2523
g355
aI3
aa(lp2524
g1214
aI4
aa(lp2525
g92
aI1
aa(lp2526
g1395
aI3
aa(lp2527
g561
aI2
aa(lp2528
g1127
aI1
aa(lp2529
g801
aI2
aa(lp2530
g733
aI1
aa(lp2531
g1389
aI1
aa(lp2532
g475
aI1
aa(lp2533
g1139
aI3
aa(lp2534
g1116
aI1
aa(lp2535
g793
aI1
aa(lp2536
g580
aI3
aa(lp2537
g1248
aI5
aa(lp2538
g929
aI1
aa(lp2539
g895
aI3
aa(lp2540
g45
aI3
aa(lp2541
g1224
aI3
aa(lp2542
g24
aI3
aa(lp2543
g632
aI1
aa(lp2544
g693
aI2
aa(lp2545
g728
aI1
aa(lp2546
g312
aI1
aa(lp2547
g1071
aI1
aa(lp2548
g251
aI1
aa(lp2549
g1273
aI2
aa(lp2550
g1423
aI2
aa(lp2551
g610
aI3
aa(lp2552
g1231
aI1
aa(lp2553
g156
aI2
aa(lp2554
g1076
aI2
aa(lp2555
g377
aI1
aa(lp2556
g1444
aI1
aa(lp2557
g1266
aI1
aa(lp2558
g1384
aI3
aa(lp2559
g954
aI2
aa(lp2560
g1055
aI1
aa(lp2561
g1165
aI2
aa(lp2562
g1038
aI1
aa(lp2563
g174
aI1
aa(lp2564
g882
aI1
aa(lp2565
g982
aI1
aa(lp2566
g981
aI1
aa(lp2567
g1234
aI1
aa(lp2568
g1483
aI1
aa(lp2569
g1194
aI1
aa(lp2570
g1209
aI1
aa(lp2571
g115
aI1
aa(lp2572
g413
aI2
aa(lp2573
g282
aI1
aa(lp2574
g937
aI1
aa(lp2575
g141
aI1
aa(lp2576
g1043
aI1
aa(lp2577
g911
aI3
aa(lp2578
g818
aI1
aa(lp2579
g700
aI2
aa(lp2580
g461
aI3
aa(lp2581
g21
aI7
aa(lp2582
g1517
aI1
aa(lp2583
g786
aI1
aa(lp2584
g756
aI5
aa(lp2585
g1178
aI3
aa(lp2586
g1300
aI1
aa(lp2587
g657
aI1
aa(lp2588
g719
aI1
aa(lp2589
g582
aI1
aa(lp2590
g933
aI1
aa(lp2591
g1128
aI1
aa(lp2592
g474
aI6
aa(lp2593
g425
aI1
aa(lp2594
g396
aI1
aa(lp2595
g787
aI2
aa(lp2596
g501
aI1
aa(lp2597
g1541
aI1
aa(lp2598
g1437
aI1
aa(lp2599
g512
aI1
aa(lp2600
g870
aI3
aa(lp2601
g834
aI1
aa(lp2602
g118
aI1
aa(lp2603
g894
aI3
aa(lp2604
g151
aI1
aa(lp2605
g571
aI1
aa(lp2606
g494
aI1
aa(lp2607
g661
aI1
aa(lp2608
g1145
aI1
aa(lp2609
g139
aI1
aa(lp2610
g240
aI2
aa(lp2611
g724
aI2
aa(lp2612
g1216
aI1
aa(lp2613
g572
aI1
aa(lp2614
g748
aI2
aa(lp2615
g1381
aI1
aa(lp2616
g1499
aI9
aa(lp2617
g1504
aI1
aa(lp2618
g1272
aI1
aa(lp2619
g1481
aI2
aa(lp2620
g1305
aI1
aa(lp2621
g1102
aI1
aa(lp2622
g407
aI2
aa(lp2623
g284
aI1
aa(lp2624
g465
aI3
aa(lp2625
g445
aI1
aa(lp2626
g100
aI1
aa(lp2627
g1091
aI2
aa(lp2628
g393
aI1
aa(lp2629
g1374
aI1
aa(lp2630
g988
aI4
aa(lp2631
g790
aI2
aa(lp2632
g1325
aI2
aa(lp2633
g1220
aI1
aa(lp2634
g701
aI3
aa(lp2635
g1016
aI2
aa(lp2636
g403
aI1
aa(lp2637
g1514
aI1
aa(lp2638
g846
aI3
aa(lp2639
g664
aI1
aa(lp2640
g34
aI1
aa(lp2641
g997
aI1
aa(lp2642
g888
aI1
aa(lp2643
g1380
aI1
aa(lp2644
g806
aI1
aa(lp2645
g300
aI3
aa(lp2646
g820
aI1
aa(lp2647
g1260
aI1
aa(lp2648
g856
aI1
aa(lp2649
g129
aI1
aa(lp2650
g691
aI1
aa(lp2651
g1413
aI1
aa(lp2652
g1176
aI2
aa(lp2653
g555
aI1
aa(lp2654
g63
aI1
aa(lp2655
g1058
aI1
aa(lp2656
g414
aI1
aa(lp2657
g1502
aI2
aa(lp2658
g1201
aI1
aa(lp2659
g859
aI1
aa(lp2660
g187
aI1
aa(lp2661
g1309
aI1
aa(lp2662
g1388
aI1
aa(lp2663
g1270
aI1
aa(lp2664
g96
aI1
aa(lp2665
g1369
aI1
aa(lp2666
g821
aI1
aa(lp2667
g1489
aI2
aa(lp2668
g1560
aI1
aa(lp2669
g807
aI2
aa(lp2670
g1187
aI1
aa(lp2671
g56
aI1
aa(lp2672
g1565
aI2
aa(lp2673
g1418
aI1
aa(lp2674
g952
aI1
aa(lp2675
g1068
aI2
aa(lp2676
g192
aI1
aa(lp2677
g1337
aI1
aa(lp2678
g891
aI2
aa(lp2679
g175
aI1
aa(lp2680
g370
aI1
aa(lp2681
g18
aI1
aa(lp2682
g95
aI1
aa(lp2683
g1365
aI1
aa(lp2684
g1335
aI1
aa(lp2685
g1454
aI1
aa(lp2686
g1197
aI1
aa(lp2687
g1245
aI1
aa(lp2688
g1054
aI1
aa(lp2689
g1077
aI2
aa(lp2690
g551
aI1
aa(lp2691
g288
aI1
aa(lp2692
g541
aI1
aa(lp2693
g149
aI1
aa(lp2694
g1227
aI3
aa(lp2695
g185
aI1
aa(lp2696
g643
aI2
aa(lp2697
g945
aI1
aa(lp2698
g364
aI1
aa(lp2699
g1467
aI1
aa(lp2700
g1503
aI2
aa(lp2701
g493
aI1
aa(lp2702
g1520
aI1
aa(lp2703
g1180
aI1
aa(lp2704
g1494
aI1
aa(lp2705
g925
aI2
aa(lp2706
g1491
aI1
aa(lp2707
g914
aI1
aa(lp2708
g361
aI2
aa(lp2709
g524
aI2
aa(lp2710
g989
aI1
aa(lp2711
g620
aI1
aa(lp2712
g1022
aI2
aa(lp2713
g655
aI1
aa(lp2714
g1354
aI1
aa(lp2715
g462
aI1
aa(lp2716
g1053
aI1
aa(lp2717
g1342
aI4
aa(lp2718
g681
aI1
aa(lp2719
g291
aI1
aa(lp2720
g264
aI2
aa(lp2721
g649
aI1
aa(lp2722
g1093
aI1
aa(lp2723
g584
aI1
aa(lp2724
g1556
aI1
aa(lp2725
g1040
aI1
aa(lp2726
g9
aI1
aa(lp2727
g727
aI1
aa(lp2728
g1408
aI1
aa(lp2729
g1473
aI1
aa(lp2730
g532
aI1
aa(lp2731
g466
aI1
aa(lp2732
g1436
aI1
aa(lp2733
g1226
aI2
aa(lp2734
g200
aI1
aa(lp2735
g1362
aI1
aa(lp2736
g833
aI1
aa(lp2737
g637
aI1
aa(lp2738
g1268
aI3
aa(lp2739
g1056
aI1
aa(lp2740
g1459
aI1
aa(lp2741
g1182
aI2
aa(lp2742
g123
aI1
aa(lp2743
g66
aI3
aa(lp2744
g32
aI2
aa(lp2745
g1400
aI1
aa(lp2746
g416
aI2
aa(lp2747
g574
aI1
aa(lp2748
g1433
aI1
aa(lp2749
g406
aI3
aa(lp2750
g660
aI2
aa(lp2751
g864
aI1
aa(lp2752
g321
aI1
aa(lp2753
g1496
aI2
aa(lp2754
g1158
aI1
aa(lp2755
g1508
aI2
aa(lp2756
g332
aI1
aa(lp2757
g947
aI1
aa(lp2758
g635
aI1
aa(lp2759
g508
aI1
aa(lp2760
g1036
aI1
aa(lp2761
g769
aI1
aa(lp2762
g879
aI2
aa(lp2763
g1382
aI1
aa(lp2764
g694
aI1
aa(lp2765
g218
aI2
aa(lp2766
g781
aI1
aa(lp2767
g379
aI1
aa(lp2768
g193
aI3
aa(lp2769
g1562
aI1
aa(lp2770
g623
aI1
aa(lp2771
g1215
aI1
aa(lp2772
g998
aI1
aa(lp2773
g70
aI1
aa(lp2774
g1419
aI1
aa(lp2775
g135
aI1
aa(lp2776
g502
aI1
aa(lp2777
g912
aI2
aa(lp2778
g775
aI1
aa(lp2779
g491
aI1
aa(lp2780
g1552
aI1
aa(lp2781
g225
aI1
aa(lp2782
g992
aI1
aa(lp2783
g642
aI2
aa(lp2784
g1094
aI2
aa(lp2785
g881
aI1
aa(lp2786
g1476
aI1
aa(lp2787
g890
aI2
aa(lp2788
g707
aI1
aa(lp2789
g938
aI1
aa(lp2790
g863
aI1
aa(lp2791
g1029
aI1
aa(lp2792
g1547
aI1
aa(lp2793
g931
aI1
aa(lp2794
g1254
aI1
aa(lp2795
g839
aI1
aa(lp2796
g901
aI1
aa(lp2797
g616
aI2
aa(lp2798
g738
aI2
aa(lp2799
g1347
aI4
aa(lp2800
g598
aI1
aa(lp2801
g830
aI1
aa(lp2802
g877
aI1
aa(lp2803
g272
aI1
aa(lp2804
g548
aI1
aa(lp2805
g796
aI1
aa(lp2806
g697
aI1
aa(lp2807
g61
aI1
aa(lp2808
g1340
aI1
aa(lp2809
g1205
aI2
aa(lp2810
g1291
aI1
aa(lp2811
g77
aI1
aa(lp2812
g1167
aI1
aa(lp2813
g630
aI1
aa(lp2814
g854
aI2
aa(lp2815
g1030
aI1
aa(lp2816
g1429
aI1
aa(lp2817
g1020
aI1
aa(lp2818
g1137
aI1
aa(lp2819
g768
aI1
aa(lp2820
g1126
aI1
aa(lp2821
g1462
aI1
aa(lp2822
g631
aI1
aa(lp2823
g1125
aI1
aa(lp2824
g186
aI1
aa(lp2825
g1338
aI1
aa(lp2826
g749
aI2
aa(lp2827
g1370
aI1
aa(lp2828
g871
aI1
aa(lp2829
g256
aI1
aa(lp2830
g1563
aI1
aa(lp2831
g969
aI1
aa(lp2832
g1428
aI1
aa(lp2833
g1358
aI1
aa(lp2834
g1140
aI1
aa(lp2835
g499
aI1
aa(lp2836
g1439
aI2
aa(lp2837
g526
aI1
aa(lp2838
g308
aI1
aa(lp2839
g720
aI1
aa(lp2840
g1232
aI1
aa(lp2841
g949
aI1
aa(lp2842
g114
aI1
aa(lp2843
g860
aI1
aa(lp2844
g656
aI1
aa(lp2845
g990
aI4
aa(lp2846
g477
aI2
aa(lp2847
g764
aI2
aa(lp2848
g838
aI1
aa(lp2849
g1230
aI1
aa(lp2850
g917
aI1
aa(lp2851
g337
aI1
aa(lp2852
g824
aI1
aa(lp2853
g510
aI1
aa(lp2854
g292
aI1
aa(lp2855
g715
aI2
aa(lp2856
g150
aI1
aa(lp2857
g511
aI1
aa(lp2858
g1344
aI1
aa(lp2859
g514
aI1
aa(lp2860
g1177
aI1
aa(lp2861
g999
aI1
aa(lp2862
g1513
aI1
aa(lp2863
g1375
aI1
aa(lp2864
g350
aI1
aa(lp2865
g1529
aI1
aa(lp2866
g817
aI1
aa(lp2867
g243
aI1
aa(lp2868
g352
aI1
aa(lp2869
g1160
aI1
aa(lp2870
g383
aI1
aa(lp2871
g116
aI1
aa(lp2872
g1117
aI1
aa(lp2873
g1555
aI1
aa(lp2874
g950
aI1
aa(lp2875
g1406
aI1
aa(lp2876
g90
aI1
aa(lp2877
g207
aI1
aa(lp2878
g575
aI1
aa(lp2879
g687
aI2
aa(lp2880
g184
aI1
aa(lp2881
g172
aI2
aa(lp2882
g1229
aI1
aa(lp2883
g747
aI1
aa(lp2884
g1113
aI1
aa(lp2885
g1037
aI1
aa(lp2886
g564
aI1
aa(lp2887
g1148
aI2
aa(lp2888
g600
aI2
aa(lp2889
g79
aI1
aa(lp2890
g703
aI1
aa(lp2891
g865
aI2
aa(lp2892
g1067
aI1
aa(lp2893
g1222
aI1
aa(lp2894
g908
aI1
aa(lp2895
g387
aI1
aa(lp2896
g671
aI1
aa(lp2897
g305
aI1
aa(lp2898
g1564
aI1
aa(lp2899
g87
aI1
aa(lp2900
g618
aI1
aa(lp2901
g1089
aI1
aa(lp2902
g1568
aI2
aa(lp2903
g1311
aI1
aa(lp2904
g1189
aI1
aa(lp2905
g1159
aI1
aa(lp2906
g358
aI1
aa(lp2907
g836
aI1
aa(lp2908
g128
aI1
aa(lp2909
g1233
aI2
aa(lp2910
g946
aI1
aa(lp2911
g1391
aI1
aa(lp2912
g1204
aI1
aa(lp2913
g928
aI1
aa(lp2914
g71
aI1
aa(lp2915
g336
aI1
aa(lp2916
g759
aI4
aa(lp2917
g1081
aI2
aa(lp2918
g709
aI1
aa(lp2919
g587
aI1
aa(lp2920
g381
aI1
aa(lp2921
g1357
aI1
aa(lp2922
g536
aI1
aa(lp2923
g1163
aI1
aa(lp2924
g368
aI1
aa(lp2925
g348
aI1
aa(lp2926
g1306
aI1
aa(lp2927
g101
aI1
aa(lp2928
g286
aI1
aa(lp2929
g1539
aI1
aa(lp2930
g223
aI1
aa(lp2931
g614
aI1
aa(lp2932
g751
aI1
aa(lp2933
g1518
aI1
aa(lp2934
g1039
aI2
aa(lp2935
g979
aI1
aa(lp2936
g1410
aI1
aa(lp2937
g1341
aI1
aa(lp2938
g1399
aI1
aa(lp2939
g628
aI1
aa(lp2940
g304
aI1
aa(lp2941
g1017
aI1
aa(lp2942
g1064
aI1
aa(lp2943
g1329
aI1
aa(lp2944
g1392
aI1
aa(lp2945
g822
aI1
aa(lp2946
g784
aI1
aa(lp2947
g94
aI1
aa(lp2948
g1280
aI1
aa(lp2949
g1250
aI1
aa(lp2950
g302
aI1
aa(lp2951
g1398
aI1
aa(lp2952
g1346
aI1
aa(lp2953
g167
aI1
aa(lp2954
g899
aI1
aa(lp2955
g588
aI1
aa(lp2956
g1050
aI1
aa(lp2957
g943
aI1
aa(lp2958
g1482
aI1
aa(lp2959
g1196
aI1
aa(lp2960
g1095
aI1
aa(lp2961
g755
aI1
aa(lp2962
g1322
aI1
aa(lp2963
g852
aI1
aa(lp2964
g1052
aI1
aa(lp2965
g581
aI1
aa(lp2966
g960
aI1
aa(lp2967
g1253
aI1
aa(lp2968
g86
aI3
aa(lp2969
g951
aI1
aa(lp2970
g809
aI1
aa(lp2971
g84
aI1
aa(lp2972
g1465
aI1
aa(lp2973
g971
aI1
aa(lp2974
g498
aI1
aa(lp2975
g1487
aI2
aa(lp2976
g716
aI1
aa(lp2977
g1200
aI1
aa(lp2978
g590
aI1
aa(lp2979
g722
aI1
aa(lp2980
g857
aI1
aa(lp2981
g1282
aI1
aa(lp2982
g113
aI1
aa(lp2983
g253
aI1
aa(lp2984
g1463
aI1
aa(lp2985
g1146
aI1
aa(lp2986
g791
aI1
aa(lp2987
g1084
aI1
aa(lp2988
g487
aI1
aa(lp2989
g1506
aI1
aa(lp2990
g134
aI1
aa(lp2991
g1571
aI1
aa(lp2992
g88
aI1
aa(lp2993
g792
aI1
aa(lp2994
g1537
aI1
aa(lp2995
g234
aI1
aa(lp2996
g647
aI1
aa(lp2997
g927
aI1
aa(lp2998
g454
aI1
aa(lp2999
g1378
aI1
aa(lp3000
g1026
aI1
aa(lp3001
g1490
aI1
aa(lp3002
g376
aI1
aa(lp3003
g1435
aI1
aa(lp3004
g1361
aI2
aa(lp3005
g311
aI1
aa(lp3006
g855
aI1
aa(lp3007
g278
aI1
aa(lp3008
g684
aI1
aa(lp3009
g1256
aI2
aa(lp3010
g530
aI1
aa(lp3011
g408
aI1
aa(lp3012
g453
aI1
aa(lp3013
g152
aI1
aa(lp3014
g52
aI1
aa(lp3015
g942
aI1
aa(lp3016
g1372
aI1
aa(lp3017
g1257
aI2
aa(lp3018
g433
aI1
aa(lp3019
g717
aI1
aa(lp3020
g1456
aI1
aa(lp3021
g776
aI1
aa(lp3022
g1242
aI1
aa(lp3023
g517
aI1
aa(lp3024
g429
aI1
aa(lp3025
g1293
aI1
aa(lp3026
g1546
aI1
aa(lp3027
g1472
aI1
aa(lp3028
g742
aI1
aa(lp3029
g1060
aI2
aa(lp3030
g725
aI1
aa(lp3031
g120
aI1
aa(lp3032
g1213
aI1
aa(lp3033
g23
aI1
aa(lp3034
g1099
aI1
aa(lp3035
g215
aI1
aa(lp3036
g1412
aI1
aa(lp3037
g1166
aI1
aa(lp3038
g1515
aI1
aa(lp3039
g558
aI1
aa(lp3040
g1031
aI1
aa(lp3041
g873
aI1
aa(lp3042
g58
aI3
aa(lp3043
g1098
aI1
aa(lp3044
g1441
aI1
aa(lp3045
g435
aI1
aa(lp3046
g777
aI1
aa(lp3047
g164
aI1
aa(lp3048
g845
aI1
aa(lp3049
g1578
aI1
aa(lp3050
g1191
aI2
aa(lp3051
g682
aI1
aa(lp3052
g1047
aI1
aa(lp3053
g842
aI1
aa(lp3054
g1255
aI2
aa(lp3055
g986
aI1
aa(lp3056
g713
aI1
aa(lp3057
g399
aI1
aa(lp3058
g313
aI1
aa(lp3059
g69
aI1
aa(lp3060
g148
aI1
aa(lp3061
g1320
aI1
aa(lp3062
g269
aI1
aa(lp3063
g753
aI1
aa(lp3064
g489
aI1
aa(lp3065
g1409
aI1
aa(lp3066
g1283
aI1
aa(lp3067
g1051
aI1
aa(lp3068
g41
aI1
aa(lp3069
g1298
aI1
aa(lp3070
g679
aI1
aa(lp3071
g469
aI1
aa(lp3072
g241
aI1
aa(lp3073
g958
aI1
aa(lp3074
g369
aI1
aa(lp3075
g1086
aI1
aa(lp3076
g105
aI1
aa(lp3077
g1198
aI1
aa(lp3078
g978
aI1
aa(lp3079
g322
aI2
aa(lp3080
g668
aI1
aa(lp3081
g506
aI1
aa(lp3082
g826
aI1
aa(lp3083
g1123
aI1
aa(lp3084
g1074
aI1
aa(lp3085
g463
aI1
aa(lp3086
g1186
aI1
aa(lp3087
g626
aI1
aa(lp3088
g170
aI1
aa(lp3089
g750
aI1
aa(lp3090
g351
aI1
aa(lp3091
g216
aI1
aa(lp3092
g1542
aI1
aa(lp3093
g285
aI1
aa(lp3094
g1079
aI1
aa(lp3095
g1339
aI1
aa(lp3096
g344
aI1
aa(lp3097
g920
aI1
aa(lp3098
g421
aI1
aa(lp3099
g339
aI1
aa(lp3100
g746
aI1
aa(lp3101
g325
aI1
aa(lp3102
g1573
aI1
aa(lp3103
g634
aI1
aa(lp3104
g219
aI1
aa(lp3105
g1199
aI1
aa(lp3106
g902
aI1
aa(lp3107
g1243
aI1
aa(lp3108
g1353
aI1
aa(lp3109
g205
aI1
aa(lp3110
g1034
aI2
aa(lp3111
g1387
aI1
aa(lp3112
g893
aI1
aa(lp3113
g1144
aI1
aa(lp3114
g726
aI1
aa(lp3115
g211
aI1
aa(lp3116
g519
aI1
aa(lp3117
g844
aI1
aa(lp3118
g666
aI1
aa(lp3119
g739
aI1
aa(lp3120
g470
aI1
aa(lp3121
g659
aI1
aa(lp3122
g1519
aI1
aa(lp3123
g19
aI1
aa(lp3124
g1279
aI1
aa(lp3125
g1557
aI1
aa(lp3126
g1332
aI1
aa(lp3127
g651
aI1
aa(lp3128
g773
aI1
aa(lp3129
g485
aI1
aa(lp3130
g142
aI1
aa(lp3131
g455
aI1
aa(lp3132
g125
aI1
aa(lp3133
g1174
aI1
aa(lp3134
g984
aI1
aa(lp3135
g50
aI1
aa(lp3136
g1317
aI1
aa(lp3137
g346
aI1
aa(lp3138
g1540
aI1
aa(lp3139
g968
aI1
aa(lp3140
g495
aI1
aa(lp3141
g46
aI1
aa(lp3142
g267
aI1
aa(lp3143
g226
aI1
aa(lp3144
g889
aI1
aa(lp3145
g916
aI1
aa(lp3146
g1147
aI1
aa(lp3147
g1528
aI1
aa(lp3148
g849
aI1
aa(lp3149
g49
aI1
aa(lp3150
g1021
aI1
aa(lp3151
g507
aI1
aa(lp3152
g1285
aI1
aa(lp3153
g140
aI1
aa(lp3154
g37
aI1
aatp3155
Rp3156
sS'split'
p3157
S' '
p3158
sS'filters'
p3159
S'!"#$%&()*+,-./:;<=>?@[\\]^_`{|}~\t\n'
p3160
sS'word_docs'
p3161
(dp3162
g9
I1
sg10
I1
sg11
I31
sg12
I12
sg13
I10
sg14
I10
sg35
I1
sg16
I13
sg17
I1
sg18
I1
sg19
I1
sg20
I18
sg21
I7
sg22
I1
sg23
I1
sg24
I3
sg25
I5
sg26
I4
sg27
I1
sg28
I1
sg29
I3
sg30
I6
sg31
I1
sg32
I2
sg33
I9
sg34
I1
sg15
I4
sg36
I1
sg37
I1
sg38
I28
sg39
I1
sg40
I68
sg41
I1
sg42
I59
sg43
I1
sg44
I7
sg45
I3
sg46
I1
sg47
I1
sg48
I14
sg49
I1
sg50
I1
sg51
I12
sg52
I1
sg53
I1
sg54
I5
sg55
I5
sg56
I1
sg57
I1
sg58
I3
sg59
I1
sg60
I2
sg61
I1
sg62
I2
sg63
I1
sg64
I3
sg65
I4
sg66
I3
sg67
I5
sg68
I1
sg69
I1
sg70
I1
sg71
I1
sg72
I1
sg73
I1
sg74
I5
sg75
I1
sg76
I3
sg77
I1
sg78
I4
sg79
I1
sg80
I1
sg81
I1
sg82
I1
sg83
I4
sg84
I1
sg85
I1
sg86
I3
sg87
I1
sg88
I1
sg89
I1
sg90
I1
sg91
I2
sg92
I1
sg93
I25
sg94
I1
sg95
I1
sg96
I1
sg97
I4
sg98
I1
sg99
I46
sg100
I1
sg101
I1
sg102
I52
sg103
I1
sg104
I2
sg105
I1
sg106
I30
sg107
I1
sg108
I1
sg109
I2
sg110
I3
sg111
I25
sg112
I2
sg113
I1
sg114
I1
sg642
I2
sg116
I1
sg117
I1
sg118
I1
sg119
I5
sg120
I1
sg121
I1
sg122
I1
sg123
I1
sg124
I5
sg125
I1
sg126
I3
sg127
I5
sg128
I1
sg129
I1
sg130
I11
sg131
I10
sg133
I1
sg134
I1
sg135
I1
sg136
I1
sg137
I4
sg138
I6
sg139
I1
sg140
I1
sg141
I1
sg142
I1
sg143
I3
sg144
I2
sg145
I1
sg146
I4
sg147
I2
sg148
I1
sg149
I1
sg150
I1
sg151
I1
sg152
I1
sg1101
I3
sg154
I7
sg155
I2
sg156
I2
sg157
I1
sg158
I38
sg159
I1
sg160
I11
sg161
I2
sg162
I11
sg163
I1
sg164
I1
sg165
I1
sg166
I1
sg167
I1
sg168
I1
sg169
I28
sg170
I1
sg171
I1
sg172
I2
sg173
I2
sg174
I1
sg175
I1
sg176
I1
sg177
I14
sg178
I3
sg179
I1
sg180
I1
sg181
I2
sg182
I1
sg183
I4
sg184
I1
sg185
I1
sg186
I1
sg187
I1
sg188
I2
sg1106
I26
sg190
I2
sg191
I29
sg192
I1
sg193
I3
sg194
I11
sg195
I4
sg196
I1
sg197
I3
sg198
I23
sg199
I2
sg200
I1
sg201
I1
sg202
I4
sg203
I206
sg204
I1
sg205
I1
sg206
I1
sg207
I1
sg208
I2
sg209
I1
sg210
I1
sg211
I1
sg212
I1
sg213
I1
sg214
I1
sg215
I1
sg216
I1
sg217
I58
sg218
I2
sg219
I1
sg220
I6
sg221
I5
sg222
I6
sg223
I1
sg224
I1
sg225
I1
sg226
I1
sg227
I1
sg228
I1
sg229
I24
sg230
I2
sg231
I3
sg232
I5
sg233
I1
sg234
I1
sg235
I1
sg236
I1
sg237
I2
sg238
I1
sg239
I1
sg240
I2
sg241
I1
sg242
I6
sg243
I1
sg244
I2
sg245
I3
sg246
I1
sg247
I1
sg248
I3
sg249
I2
sg250
I3
sg251
I1
sg252
I1
sg253
I1
sg254
I1
sg255
I2
sg256
I1
sg257
I1
sg258
I1
sg259
I1
sg260
I6
sg261
I1
sg262
I1
sg263
I3
sg264
I2
sg265
I7
sg266
I14
sg267
I1
sg268
I2
sg269
I1
sg270
I1
sg271
I1
sg272
I1
sg273
I46
sg274
I9
sg275
I1
sg276
I33
sg277
I23
sg278
I1
sg279
I238
sg280
I13
sg281
I24
sg282
I1
sg283
I440
sg284
I1
sg285
I1
sg286
I1
sg287
I1
sg288
I1
sg289
I2
sg290
I9
sg291
I1
sg292
I1
sg1120
I1
sg294
I1
sg295
I1
sg296
I1
sg297
I2
sg298
I7
sg299
I3
sg300
I3
sg301
I4
sg302
I1
sg303
I13
sg304
I1
sg305
I1
sg306
I327
sg307
I1
sg308
I1
sg309
I3
sg310
I3
sg311
I1
sg312
I1
sg313
I1
sg314
I1
sg315
I2
sg316
I1
sg317
I3
sg318
I10
sg319
I11
sg320
I27
sg321
I1
sg322
I1
sg323
I22
sg324
I1
sg325
I1
sg326
I6
sg327
I5
sg328
I5
sg329
I5
sg330
I3
sg331
I2
sg332
I1
sg333
I23
sg334
I63
sg335
I4
sg336
I1
sg337
I1
sg338
I23
sg339
I1
sg340
I7
sg341
I6
sg342
I1
sg343
I2
sg344
I1
sg345
I1
sg346
I1
sg432
I4
sg348
I1
sg349
I1
sg350
I1
sg351
I1
sg352
I1
sg777
I1
sg354
I42
sg355
I3
sg356
I1
sg357
I2
sg358
I1
sg359
I1
sg542
I7
sg361
I2
sg362
I1
sg363
I9
sg364
I1
sg365
I1
sg366
I11
sg367
I1
sg368
I1
sg369
I1
sg370
I1
sg371
I1
sg372
I1
sg1131
I1000
sg374
I1
sg375
I1
sg376
I1
sg377
I1
sg378
I1
sg379
I1
sg380
I1
sg381
I1
sg382
I1
sg383
I1
sg384
I33
sg385
I3
sg386
I1
sg387
I1
sg388
I9
sg389
I8
sg390
I7
sg391
I21
sg424
I2
sg392
I2
sg393
I1
sg394
I1
sg598
I1
sg396
I1
sg397
I2
sg398
I3
sg399
I1
sg400
I2
sg401
I3
sg402
I5
sg403
I1
sg404
I1
sg405
I2
sg406
I3
sg851
I1
sg408
I1
sg409
I92
sg410
I1
sg411
I1
sg412
I4
sg413
I2
sg414
I1
sg415
I1
sg416
I2
sg417
I5
sg418
I10
sg419
I1
sg420
I3
sg421
I1
sg422
I7
sg423
I8
sg1345
I2
sg425
I1
sg426
I19
sg427
I5
sg428
I5
sg429
I1
sg430
I3
sg431
I1
sg347
I5
sg433
I1
sg434
I4
sg435
I1
sg436
I74
sg437
I11
sg438
I13
sg439
I2
sg440
I127
sg441
I1
sg442
I1
sg443
I1
sg444
I2
sg445
I1
sg624
I4
sg446
I2
sg447
I5
sg448
I1
sg449
I1
sg450
I5
sg451
I1
sg452
I3
sg453
I1
sg454
I1
sg455
I1
sg456
I1
sg457
I1
sg458
I2
sg459
I8
sg460
I5
sg461
I3
sg462
I1
sg463
I1
sg464
I3
sg465
I3
sg466
I1
sg467
I12
sg468
I7
sg469
I1
sg470
I1
sg471
I3
sg472
I1
sg874
I1
sg474
I6
sg475
I1
sg476
I29
sg477
I2
sg478
I2
sg479
I2
sg480
I1
sg481
I2
sg482
I1
sg483
I1
sg484
I175
sg485
I1
sg486
I4
sg487
I1
sg488
I1
sg489
I1
sg490
I4
sg491
I1
sg492
I2
sg493
I1
sg494
I1
sg495
I1
sg496
I2
sg497
I2
sg498
I1
sg499
I1
sg500
I3
sg501
I1
sg502
I1
sg503
I49
sg504
I1
sg505
I1
sg506
I1
sg507
I1
sg508
I1
sg509
I1
sg510
I1
sg511
I1
sg512
I1
sg513
I1
sg514
I1
sg515
I14
sg516
I2
sg517
I1
sg518
I1
sg519
I1
sg520
I1
sg521
I2
sg522
I106
sg523
I1
sg524
I2
sg525
I1
sg526
I1
sg527
I1
sg528
I1
sg529
I1
sg530
I1
sg531
I1
sg532
I1
sg533
I2
sg534
I3
sg535
I2
sg536
I1
sg537
I1
sg538
I1
sg539
I8
sg1421
I1
sg541
I1
sg360
I16
sg887
I5
sg544
I24
sg1152
I3
sg546
I1
sg547
I1
sg548
I1
sg549
I1
sg550
I2
sg551
I1
sg552
I1
sg553
I11
sg554
I33
sg555
I1
sg556
I1
sg557
I3
sg558
I1
sg559
I99
sg560
I2
sg561
I2
sg562
I2
sg563
I1
sg564
I1
sg565
I11
sg566
I1
sg567
I3
sg568
I1
sg569
I1
sg570
I1
sg571
I1
sg572
I1
sg573
I2
sg574
I1
sg575
I1
sg576
I238
sg577
I1
sg578
I2
sg579
I1
sg580
I3
sg581
I1
sg582
I1
sg583
I1
sg584
I1
sg585
I1
sg586
I2
sg587
I1
sg588
I1
sg589
I7
sg590
I1
sg591
I1
sg592
I1
sg593
I2
sg594
I1
sg595
I15
sg596
I3
sg597
I2
sg395
I1
sg599
I34
sg600
I2
sg601
I1
sg602
I3
sg603
I4
sg604
I13
sg605
I1
sg606
I17
sg607
I2
sg608
I1
sg609
I126
sg610
I3
sg611
I2
sg612
I3
sg613
I1
sg614
I1
sg615
I2
sg616
I2
sg617
I3
sg618
I1
sg619
I7
sg620
I1
sg621
I4
sg622
I1
sg623
I1
sg784
I1
sg625
I1
sg626
I1
sg627
I8
sg628
I1
sg629
I20
sg630
I1
sg631
I1
sg632
I1
sg633
I17
sg634
I1
sg635
I1
sg636
I5
sg637
I1
sg638
I3
sg639
I5
sg640
I1
sg641
I1
sg115
I1
sg643
I2
sg644
I6
sg645
I3
sg646
I1
sg647
I1
sg648
I5
sg649
I1
sg650
I4
sg651
I1
sg652
I1
sg653
I8
sg654
I1
sg655
I1
sg656
I1
sg657
I1
sg658
I1
sg659
I1
sg660
I2
sg661
I1
sg662
I1
sg663
I3
sg664
I1
sg665
I11
sg666
I1
sg667
I2
sg668
I1
sg669
I2
sg670
I1
sg671
I1
sg672
I5
sg883
I6
sg674
I1
sg675
I1
sg676
I1
sg677
I2
sg678
I1
sg679
I1
sg680
I40
sg681
I1
sg682
I1
sg683
I14
sg684
I1
sg685
I3
sg686
I5
sg687
I2
sg688
I1
sg689
I4
sg690
I10
sg691
I1
sg692
I2
sg693
I2
sg694
I1
sg695
I1
sg696
I1
sg697
I1
sg698
I1
sg699
I3
sg700
I2
sg701
I3
sg702
I15
sg703
I1
sg704
I2
sg705
I2
sg706
I2
sg707
I1
sg708
I10
sg709
I1
sg710
I1
sg711
I2
sg712
I2
sg713
I1
sg714
I2
sg715
I2
sg716
I1
sg717
I1
sg718
I1
sg719
I1
sg720
I1
sg721
I1
sg722
I1
sg723
I1
sg724
I2
sg725
I1
sg726
I1
sg727
I1
sg728
I1
sg729
I227
sg730
I4
sg731
I1
sg732
I189
sg733
I1
sg734
I9
sg735
I4
sg736
I8
sg737
I1
sg738
I2
sg739
I1
sg740
I4
sg741
I2
sg742
I1
sg743
I2
sg744
I22
sg745
I8
sg746
I1
sg747
I1
sg748
I2
sg749
I2
sg750
I1
sg751
I1
sg752
I1
sg753
I1
sg754
I4
sg755
I1
sg756
I5
sg757
I162
sg758
I1
sg759
I4
sg760
I34
sg761
I1
sg762
I10
sg763
I62
sg764
I2
sg765
I75
sg766
I11
sg767
I2
sg768
I1
sg769
I1
sg770
I31
sg771
I1
sg1509
I3
sg773
I1
sg774
I10
sg775
I1
sg776
I1
sg778
I3
sg779
I16
sg780
I12
sg781
I1
sg782
I1
sg783
I1
sg785
I1
sg786
I1
sg787
I2
sg788
I1
sg789
I1
sg790
I2
sg791
I1
sg792
I1
sg793
I1
sg794
I29
sg795
I2
sg796
I1
sg797
I1
sg798
I81
sg799
I1
sg800
I5
sg801
I2
sg802
I68
sg803
I36
sg804
I4
sg805
I1
sg806
I1
sg807
I2
sg808
I1
sg809
I1
sg810
I5
sg811
I32
sg812
I14
sg813
I1
sg814
I12
sg815
I6
sg816
I1
sg817
I1
sg818
I1
sg819
I1
sg820
I1
sg821
I1
sg822
I1
sg823
I1
sg824
I1
sg825
I6
sg826
I1
sg827
I1
sg828
I1
sg829
I8
sg830
I1
sg831
I1
sg832
I1
sg833
I1
sg834
I1
sg835
I3
sg836
I1
sg837
I1
sg838
I1
sg839
I1
sg840
I10
sg841
I1
sg842
I1
sg947
I1
sg844
I1
sg845
I1
sg846
I3
sg847
I3
sg848
I1
sg849
I1
sg850
I6
sg353
I65
sg852
I1
sg853
I2
sg854
I2
sg855
I1
sg856
I1
sg857
I1
sg858
I1
sg859
I1
sg860
I1
sg861
I2
sg862
I10
sg863
I1
sg864
I1
sg865
I1
sg866
I2
sg867
I1
sg868
I5
sg869
I2
sg870
I3
sg871
I1
sg872
I1
sg873
I1
sg473
I2
sg875
I1
sg876
I6
sg877
I1
sg878
I1
sg879
I1
sg880
I1
sg881
I1
sg882
I1
sg673
I1
sg884
I3
sg885
I7
sg886
I1
sg543
I6
sg888
I1
sg889
I1
sg890
I2
sg891
I2
sg892
I5
sg893
I1
sg894
I3
sg895
I3
sg896
I3
sg897
I1
sg898
I45
sg899
I1
sg900
I1
sg901
I1
sg902
I1
sg903
I46
sg904
I3
sg905
I1
sg906
I4
sg907
I19
sg908
I1
sg909
I8
sg910
I1
sg911
I3
sg912
I2
sg913
I1
sg914
I1
sg915
I2
sg916
I1
sg917
I1
sg918
I1
sg919
I1
sg920
I1
sg921
I2
sg922
I1
sg923
I1
sg924
I1
sg925
I2
sg926
I3
sg927
I1
sg928
I1
sg929
I1
sg930
I4
sg931
I1
sg932
I6
sg933
I1
sg934
I2
sg935
I10
sg936
I1
sg937
I1
sg938
I1
sg939
I1000
sg1481
I2
sg941
I15
sg942
I1
sg943
I1
sg944
I2
sg945
I1
sg946
I1
sg843
I2
sg948
I6
sg949
I1
sg950
I1
sg951
I1
sg952
I1
sg953
I3
sg954
I2
sg955
I2
sg956
I5
sg957
I1
sg958
I1
sg959
I17
sg960
I1
sg961
I2
sg962
I1
sg963
I2
sg964
I1
sg965
I1
sg966
I2
sg967
I3
sg968
I1
sg969
I1
sg970
I2
sg971
I1
sg972
I2
sg973
I2
sg974
I1
sg975
I3
sg976
I1
sg977
I14
sg978
I1
sg979
I1
sg980
I3
sg981
I1
sg982
I1
sg983
I8
sg984
I1
sg985
I2
sg986
I1
sg987
I5
sg988
I4
sg989
I1
sg990
I4
sg991
I1
sg992
I1
sg993
I3
sg994
I11
sg995
I10
sg996
I1
sg997
I1
sg998
I1
sg999
I1
sg1000
I9
sg1001
I1
sg1002
I1
sg1003
I9
sg1004
I5
sg1005
I3
sg1006
I1
sg1007
I3
sg1008
I1
sg1009
I1
sg1010
I1
sg1011
I1
sg1012
I1
sg1013
I1
sg1014
I3
sg1015
I1
sg1016
I2
sg1017
I1
sg1018
I1
sg1019
I1
sg1020
I1
sg1021
I1
sg1022
I2
sg1495
I45
sg1023
I2
sg1024
I2
sg1025
I69
sg1026
I1
sg1027
I2
sg1028
I3
sg1029
I1
sg1030
I1
sg1031
I1
sg1032
I4
sg1033
I10
sg1034
I2
sg1035
I1
sg1036
I1
sg1037
I1
sg1038
I1
sg1039
I2
sg1040
I1
sg1041
I3
sg1042
I1
sg1043
I1
sg1044
I4
sg1045
I2
sg1046
I4
sg1181
I2
sg1047
I1
sg1048
I2
sg1049
I78
sg1050
I1
sg1051
I1
sg1052
I1
sg1053
I1
sg1054
I1
sg1055
I1
sg1056
I1
sg1057
I2
sg1058
I1
sg1059
I1
sg1060
I2
sg1061
I1
sg1062
I1
sg1063
I1
sg1064
I1
sg1065
I4
sg1066
I3
sg1067
I1
sg1068
I2
sg1069
I6
sg1070
I4
sg1071
I1
sg1072
I1
sg1073
I4
sg1074
I1
sg1075
I2
sg1076
I2
sg1077
I2
sg1078
I7
sg1079
I1
sg1080
I8
sg1081
I2
sg1082
I1
sg1083
I2
sg1084
I1
sg1085
I2
sg1086
I1
sg1087
I4
sg1088
I2
sg1089
I1
sg1090
I1
sg1091
I2
sg1092
I1
sg1093
I1
sg1094
I2
sg1095
I1
sg1096
I1
sg1097
I2
sg1098
I1
sg1099
I1
sg1100
I1
sg153
I4
sg1102
I1
sg1103
I3
sg1104
I2
sg1105
I2
sg189
I9
sg1107
I6
sg1108
I3
sg1109
I1
sg1110
I1
sg1111
I1
sg1112
I1
sg1113
I1
sg1114
I2
sg1115
I1
sg1116
I1
sg1117
I1
sg1118
I1
sg1119
I11
sg293
I17
sg1121
I8
sg1511
I2
sg1123
I1
sg1124
I1
sg1125
I1
sg1126
I1
sg1127
I1
sg1128
I1
sg1129
I24
sg1130
I6
sg373
I1
sg1132
I2
sg1348
I3
sg1134
I1
sg1135
I1
sg1136
I3
sg1137
I1
sg1138
I25
sg1139
I3
sg1140
I1
sg1141
I1
sg1142
I37
sg1143
I1
sg1144
I1
sg1145
I1
sg1146
I1
sg1147
I1
sg1148
I2
sg1149
I44
sg1150
I1
sg1151
I5
sg545
I5
sg1153
I9
sg1154
I2
sg1155
I5
sg1156
I1
sg1157
I1
sg1158
I1
sg1159
I1
sg1160
I1
sg1161
I42
sg1162
I1
sg1163
I1
sg1164
I3
sg1165
I2
sg1166
I1
sg1167
I1
sg1168
I1
sg1169
I1
sg1170
I1
sg1171
I3
sg1172
I4
sg1173
I1
sg1174
I1
sg1175
I1
sg1176
I2
sg1177
I1
sg1178
I3
sg1179
I3
sg1180
I1
sg132
I3
sg1182
I2
sg1183
I2
sg1184
I2
sg1185
I2
sg1186
I1
sg1187
I1
sg1188
I1
sg1189
I1
sg1190
I17
sg1191
I2
sg1521
I1
sg1193
I1
sg1194
I1
sg1195
I7
sg1196
I1
sg1197
I1
sg1198
I1
sg1199
I1
sg1200
I1
sg1201
I1
sg1202
I7
sg1203
I1
sg1204
I1
sg1205
I2
sg1206
I1
sg1207
I7
sg1208
I1
sg1209
I1
sg1210
I1
sg1211
I1
sg1212
I10
sg1213
I1
sg1214
I4
sg1215
I1
sg1216
I1
sg1217
I2
sg1218
I6
sg1219
I7
sg1220
I1
sg1221
I3
sg1222
I1
sg1223
I5
sg1224
I3
sg1225
I2
sg1226
I2
sg1227
I3
sg1228
I1
sg1229
I1
sg1230
I1
sg1231
I1
sg1232
I1
sg1233
I2
sg1234
I1
sg1235
I57
sg1236
I27
sg1237
I18
sg1238
I2
sg1239
I8
sg1240
I1
sg1241
I1
sg1242
I1
sg1243
I1
sg1244
I1
sg1245
I1
sg1246
I10
sg1247
I17
sg1248
I5
sg1249
I1
sg1250
I1
sg1251
I2
sg1252
I7
sg1253
I1
sg1254
I1
sg1255
I2
sg1256
I2
sg1257
I2
sg1258
I1
sg1259
I1
sg1260
I1
sg1261
I1
sg1262
I8
sg1263
I2
sg1264
I11
sg1265
I5
sg1266
I1
sg1267
I2
sg1268
I3
sg1269
I17
sg1270
I1
sg1271
I1
sg1272
I1
sg1273
I2
sg1274
I1
sg1275
I6
sg1276
I1
sg1277
I2
sg1278
I2
sg1279
I1
sg1280
I1
sg1281
I1
sg1282
I1
sg1283
I1
sg1284
I1
sg1285
I1
sg1286
I1
sg1287
I1
sg1288
I7
sg1289
I5
sg1290
I2
sg1291
I1
sg1292
I1
sg1293
I1
sg1294
I5
sg1295
I1
sg1296
I3
sg1297
I12
sg1298
I1
sg1299
I3
sg1300
I1
sg1301
I1
sg1302
I1
sg1303
I17
sg1304
I14
sg1305
I1
sg1306
I1
sg1307
I1
sg1308
I2
sg1309
I1
sg1310
I5
sg1311
I1
sg1312
I4
sg1313
I1
sg1314
I1
sg1315
I1
sg1316
I5
sg1317
I1
sg1318
I4
sg1534
I1
sg1320
I1
sg1321
I12
sg1322
I1
sg1323
I1
sg1324
I3
sg1325
I2
sg1326
I21
sg1327
I1
sg1328
I1
sg1329
I1
sg1330
I10
sg1331
I2
sg1332
I1
sg1333
I71
sg1334
I1
sg1335
I1
sg1336
I1
sg1337
I1
sg1338
I1
sg1339
I1
sg1340
I1
sg1341
I1
sg1342
I4
sg1343
I16
sg1344
I1
sg1346
I1
sg1347
I4
sg1133
I1
sg1349
I2
sg1350
I3
sg1351
I3
sg1352
I1
sg1353
I1
sg1354
I1
sg1355
I3
sg1356
I20
sg1357
I1
sg1358
I1
sg1359
I3
sg1360
I1
sg1361
I2
sg1362
I1
sg1363
I4
sg1364
I6
sg1365
I1
sg1366
I1
sg1367
I3
sg1368
I1
sg1369
I1
sg1370
I1
sg1371
I1
sg1372
I1
sg1373
I2
sg1374
I1
sg1375
I1
sg1376
I4
sg1377
I1
sg1378
I1
sg1379
I1
sg1380
I1
sg1381
I1
sg1382
I1
sg1383
I2
sg1384
I3
sg1385
I1
sg1386
I1
sg1387
I1
sg1388
I1
sg1389
I1
sg1390
I1
sg1391
I1
sg1392
I1
sg1393
I1
sg1394
I1
sg1395
I3
sg1396
I4
sg1397
I15
sg1398
I1
sg1399
I1
sg1400
I1
sg1401
I3
sg1402
I2
sg1403
I14
sg1404
I2
sg1405
I2
sg1406
I1
sg1407
I4
sg1408
I1
sg1409
I1
sg1410
I1
sg1411
I16
sg1412
I1
sg1413
I1
sg1414
I1
sg1415
I5
sg1416
I1
sg1417
I6
sg1418
I1
sg1419
I1
sg1420
I3
sg540
I2
sg1422
I4
sg1423
I2
sg1424
I1
sg1425
I4
sg1426
I3
sg1427
I1
sg1428
I1
sg1429
I1
sg1430
I3
sg1431
I1
sg1432
I1
sg1433
I1
sg1434
I2
sg1435
I1
sg1436
I1
sg1437
I1
sg1438
I2
sg1439
I2
sg1440
I2
sg1441
I1
sg1442
I6
sg1443
I12
sg1444
I1
sg1445
I1
sg1446
I9
sg1447
I3
sg1448
I12
sg1449
I5
sg1450
I2
sg407
I2
sg1451
I2
sg1452
I2
sg1453
I1
sg1454
I1
sg1455
I3
sg1456
I1
sg1457
I1
sg1458
I1
sg1459
I1
sg1460
I2
sg1461
I1
sg1462
I1
sg1463
I1
sg1464
I24
sg1465
I1
sg1466
I1
sg1467
I1
sg1468
I3
sg1469
I1
sg1470
I1
sg1471
I13
sg1472
I1
sg1473
I1
sg1474
I3
sg1475
I1
sg1476
I1
sg1477
I1
sg1478
I4
sg1479
I49
sg1480
I1
sg940
I5
sg1482
I1
sg1483
I1
sg1484
I9
sg1485
I26
sg1486
I2
sg1487
I2
sg1488
I2
sg1490
I1
sg1491
I1
sg1492
I2
sg1493
I2
sg1494
I1
sg1489
I2
sg1496
I2
sg1497
I1
sg1498
I1
sg1499
I9
sg1500
I10
sg1501
I21
sg1502
I2
sg1503
I2
sg1504
I1
sg1505
I1
sg1506
I1
sg1507
I1
sg1508
I2
sg772
I1
sg1510
I1
sg1122
I1
sg1512
I1
sg1513
I1
sg1514
I1
sg1515
I1
sg1516
I10
sg1517
I1
sg1518
I1
sg1519
I1
sg1520
I1
sg1192
I7
sg1522
I1
sg1523
I1
sg1524
I1
sg1525
I1
sg1526
I1
sg1527
I5
sg1528
I1
sg1529
I1
sg1530
I4
sg1531
I1
sg1532
I4
sg1533
I2
sg1319
I10
sg1535
I8
sg1536
I1
sg1537
I1
sg1538
I1
sg1539
I1
sg1540
I1
sg1541
I1
sg1542
I1
sg1543
I4
sg1544
I1
sg1575
I1
sg1546
I1
sg1547
I1
sg1548
I5
sg1549
I1
sg1550
I1
sg1551
I2
sg1552
I1
sg1553
I8
sg1554
I1
sg1555
I1
sg1556
I1
sg1557
I1
sg1558
I1
sg1559
I3
sg1560
I1
sg1561
I1
sg1562
I1
sg1563
I1
sg1564
I1
sg1565
I2
sg1566
I1
sg1567
I16
sg1568
I2
sg1569
I4
sg1570
I8
sg1571
I1
sg1572
I1
sg1573
I1
sg1574
I1
sg1545
I2
sg1576
I5
sg1577
I2
sg1578
I1
sg1579
I1
ssS'index_docs'
p3163
(dp3164
I1
I1000
sI2
I1000
sI3
I440
sI4
I327
sI5
I238
sI6
I238
sI7
I227
sI8
I206
sI9
I189
sI10
I175
sI11
I162
sI12
I127
sI13
I126
sI14
I106
sI15
I99
sI16
I92
sI17
I81
sI18
I78
sI19
I75
sI20
I74
sI21
I69
sI22
I68
sI23
I71
sI24
I68
sI25
I65
sI26
I62
sI27
I63
sI28
I59
sI29
I58
sI30
I57
sI31
I52
sI32
I49
sI33
I46
sI34
I49
sI35
I46
sI36
I46
sI37
I45
sI38
I45
sI39
I44
sI40
I42
sI41
I42
sI42
I40
sI43
I38
sI44
I37
sI45
I36
sI46
I34
sI47
I34
sI48
I33
sI49
I33
sI50
I32
sI51
I33
sI52
I24
sI53
I31
sI54
I31
sI55
I29
sI56
I30
sI57
I29
sI58
I29
sI59
I27
sI60
I28
sI61
I28
sI62
I26
sI63
I27
sI64
I24
sI65
I25
sI66
I26
sI67
I25
sI68
I24
sI69
I25
sI70
I24
sI71
I24
sI72
I23
sI73
I23
sI74
I23
sI75
I23
sI76
I22
sI77
I22
sI78
I21
sI79
I21
sI80
I21
sI81
I20
sI82
I20
sI83
I19
sI84
I19
sI85
I18
sI86
I16
sI87
I18
sI88
I17
sI89
I17
sI90
I17
sI91
I17
sI92
I16
sI93
I17
sI94
I17
sI95
I17
sI96
I17
sI97
I16
sI98
I16
sI99
I16
sI100
I15
sI101
I15
sI102
I14
sI103
I15
sI104
I15
sI105
I14
sI106
I14
sI107
I14
sI108
I14
sI109
I14
sI110
I14
sI111
I14
sI112
I14
sI113
I13
sI114
I13
sI115
I13
sI116
I12
sI117
I13
sI118
I13
sI119
I13
sI120
I12
sI121
I12
sI122
I12
sI123
I12
sI124
I12
sI125
I12
sI126
I12
sI127
I12
sI128
I10
sI129
I11
sI130
I11
sI131
I11
sI132
I11
sI133
I10
sI134
I11
sI135
I11
sI136
I11
sI137
I11
sI138
I11
sI139
I10
sI140
I11
sI141
I11
sI142
I11
sI143
I11
sI144
I11
sI145
I10
sI146
I10
sI147
I10
sI148
I10
sI149
I10
sI150
I10
sI151
I10
sI152
I10
sI153
I9
sI154
I10
sI155
I10
sI156
I10
sI157
I10
sI158
I10
sI159
I10
sI160
I8
sI161
I10
sI162
I10
sI163
I9
sI164
I10
sI165
I9
sI166
I9
sI167
I8
sI168
I9
sI169
I9
sI170
I9
sI171
I9
sI172
I9
sI173
I8
sI174
I9
sI175
I9
sI176
I8
sI177
I8
sI178
I9
sI179
I9
sI180
I8
sI181
I8
sI182
I8
sI183
I8
sI184
I8
sI185
I8
sI186
I8
sI187
I8
sI188
I8
sI189
I8
sI190
I8
sI191
I8
sI192
I8
sI193
I7
sI194
I7
sI195
I7
sI196
I7
sI197
I7
sI198
I7
sI199
I7
sI200
I5
sI201
I7
sI202
I7
sI203
I7
sI204
I7
sI205
I7
sI206
I6
sI207
I7
sI208
I7
sI209
I7
sI210
I7
sI211
I7
sI212
I7
sI213
I7
sI214
I7
sI215
I7
sI216
I5
sI217
I6
sI218
I6
sI219
I6
sI220
I6
sI221
I6
sI222
I6
sI223
I6
sI224
I6
sI225
I6
sI226
I6
sI227
I6
sI228
I6
sI229
I6
sI230
I6
sI231
I6
sI232
I6
sI233
I6
sI234
I6
sI235
I6
sI236
I6
sI237
I6
sI238
I6
sI239
I6
sI240
I6
sI241
I6
sI242
I5
sI243
I5
sI244
I5
sI245
I5
sI246
I5
sI247
I5
sI248
I5
sI249
I5
sI250
I5
sI251
I5
sI252
I5
sI253
I5
sI254
I5
sI255
I5
sI256
I5
sI257
I5
sI258
I5
sI259
I5
sI260
I5
sI261
I5
sI262
I5
sI263
I5
sI264
I5
sI265
I5
sI266
I5
sI267
I5
sI268
I5
sI269
I5
sI270
I5
sI271
I5
sI272
I5
sI273
I5
sI274
I5
sI275
I5
sI276
I5
sI277
I5
sI278
I5
sI279
I5
sI280
I5
sI281
I5
sI282
I5
sI283
I5
sI284
I5
sI285
I5
sI286
I5
sI287
I5
sI288
I5
sI289
I5
sI290
I5
sI291
I4
sI292
I3
sI293
I4
sI294
I4
sI295
I4
sI296
I4
sI297
I4
sI298
I4
sI299
I4
sI300
I4
sI301
I4
sI302
I4
sI303
I3
sI304
I4
sI305
I4
sI306
I4
sI307
I4
sI308
I4
sI309
I4
sI310
I4
sI311
I4
sI312
I4
sI313
I4
sI314
I4
sI315
I4
sI316
I4
sI317
I4
sI318
I4
sI319
I4
sI320
I4
sI321
I4
sI322
I4
sI323
I4
sI324
I4
sI325
I4
sI326
I4
sI327
I4
sI328
I4
sI329
I4
sI330
I4
sI331
I4
sI332
I4
sI333
I4
sI334
I4
sI335
I4
sI336
I4
sI337
I4
sI338
I4
sI339
I4
sI340
I4
sI341
I4
sI342
I4
sI343
I4
sI344
I4
sI345
I4
sI346
I4
sI347
I4
sI348
I4
sI349
I4
sI350
I4
sI351
I3
sI352
I3
sI353
I3
sI354
I3
sI355
I3
sI356
I3
sI357
I3
sI358
I3
sI359
I3
sI360
I3
sI361
I3
sI362
I3
sI363
I3
sI364
I2
sI365
I3
sI366
I3
sI367
I3
sI368
I3
sI369
I3
sI370
I2
sI371
I3
sI372
I3
sI373
I3
sI374
I3
sI375
I3
sI376
I3
sI377
I3
sI378
I3
sI379
I3
sI380
I3
sI381
I3
sI382
I3
sI383
I3
sI384
I3
sI385
I3
sI386
I3
sI387
I3
sI388
I3
sI389
I3
sI390
I3
sI391
I3
sI392
I3
sI393
I3
sI394
I3
sI395
I3
sI396
I3
sI397
I2
sI398
I3
sI399
I3
sI400
I3
sI401
I3
sI402
I3
sI403
I3
sI404
I3
sI405
I3
sI406
I3
sI407
I3
sI408
I3
sI409
I3
sI410
I3
sI411
I3
sI412
I3
sI413
I3
sI414
I3
sI415
I3
sI416
I3
sI417
I3
sI418
I3
sI419
I3
sI420
I3
sI421
I3
sI422
I3
sI423
I3
sI424
I3
sI425
I3
sI426
I3
sI427
I3
sI428
I3
sI429
I3
sI430
I3
sI431
I3
sI432
I3
sI433
I3
sI434
I3
sI435
I3
sI436
I3
sI437
I3
sI438
I3
sI439
I3
sI440
I3
sI441
I3
sI442
I3
sI443
I3
sI444
I3
sI445
I3
sI446
I3
sI447
I3
sI448
I3
sI449
I3
sI450
I3
sI451
I3
sI452
I3
sI453
I3
sI454
I3
sI455
I3
sI456
I3
sI457
I3
sI458
I3
sI459
I3
sI460
I3
sI461
I3
sI462
I3
sI463
I3
sI464
I2
sI465
I2
sI466
I2
sI467
I2
sI468
I2
sI469
I2
sI470
I2
sI471
I2
sI472
I2
sI473
I2
sI474
I2
sI475
I2
sI476
I2
sI477
I2
sI478
I2
sI479
I2
sI480
I2
sI481
I2
sI482
I2
sI483
I2
sI484
I2
sI485
I2
sI486
I2
sI487
I2
sI488
I2
sI489
I2
sI490
I2
sI491
I2
sI492
I2
sI493
I2
sI494
I2
sI495
I2
sI496
I2
sI497
I2
sI498
I2
sI499
I2
sI500
I2
sI501
I2
sI502
I2
sI503
I2
sI504
I2
sI505
I2
sI506
I2
sI507
I2
sI508
I1
sI509
I2
sI510
I2
sI511
I2
sI512
I2
sI513
I2
sI514
I2
sI515
I2
sI516
I2
sI517
I2
sI518
I2
sI519
I2
sI520
I2
sI521
I2
sI522
I2
sI523
I2
sI524
I2
sI525
I2
sI526
I2
sI527
I2
sI528
I2
sI529
I2
sI530
I2
sI531
I2
sI532
I2
sI533
I2
sI534
I2
sI535
I2
sI536
I2
sI537
I2
sI538
I2
sI539
I2
sI540
I2
sI541
I2
sI542
I2
sI543
I2
sI544
I2
sI545
I2
sI546
I2
sI547
I2
sI548
I2
sI549
I2
sI550
I2
sI551
I2
sI552
I2
sI553
I2
sI554
I2
sI555
I2
sI556
I2
sI557
I2
sI558
I2
sI559
I2
sI560
I2
sI561
I2
sI562
I1
sI563
I1
sI564
I1
sI565
I2
sI566
I2
sI567
I2
sI568
I2
sI569
I2
sI570
I2
sI571
I2
sI572
I2
sI573
I2
sI574
I2
sI575
I2
sI576
I2
sI577
I2
sI578
I2
sI579
I2
sI580
I2
sI581
I2
sI582
I2
sI583
I2
sI584
I2
sI585
I2
sI586
I2
sI587
I2
sI588
I2
sI589
I2
sI590
I2
sI591
I2
sI592
I2
sI593
I2
sI594
I2
sI595
I2
sI596
I2
sI597
I2
sI598
I2
sI599
I2
sI600
I2
sI601
I2
sI602
I2
sI603
I2
sI604
I2
sI605
I2
sI606
I2
sI607
I2
sI608
I2
sI609
I2
sI610
I2
sI611
I2
sI612
I2
sI613
I2
sI614
I2
sI615
I2
sI616
I2
sI617
I2
sI618
I2
sI619
I2
sI620
I2
sI621
I2
sI622
I2
sI623
I2
sI624
I2
sI625
I2
sI626
I2
sI627
I2
sI628
I2
sI629
I2
sI630
I2
sI631
I2
sI632
I2
sI633
I2
sI634
I2
sI635
I2
sI636
I2
sI637
I2
sI638
I2
sI639
I2
sI640
I2
sI641
I2
sI642
I2
sI643
I2
sI644
I2
sI645
I2
sI646
I2
sI647
I2
sI648
I2
sI649
I2
sI650
I2
sI651
I2
sI652
I2
sI653
I1
sI654
I2
sI655
I2
sI656
I2
sI657
I2
sI658
I2
sI659
I2
sI660
I2
sI661
I2
sI662
I2
sI663
I2
sI664
I2
sI665
I2
sI666
I2
sI667
I2
sI668
I2
sI669
I2
sI670
I2
sI671
I2
sI672
I1
sI673
I2
sI674
I2
sI675
I2
sI676
I2
sI677
I2
sI678
I2
sI679
I2
sI680
I2
sI681
I2
sI682
I2
sI683
I2
sI684
I1
sI685
I2
sI686
I1
sI687
I1
sI688
I1
sI689
I1
sI690
I1
sI691
I1
sI692
I1
sI693
I1
sI694
I1
sI695
I1
sI696
I1
sI697
I1
sI698
I1
sI699
I1
sI700
I1
sI701
I1
sI702
I1
sI703
I1
sI704
I1
sI705
I1
sI706
I1
sI707
I1
sI708
I1
sI709
I1
sI710
I1
sI711
I1
sI712
I1
sI713
I1
sI714
I1
sI715
I1
sI716
I1
sI717
I1
sI718
I1
sI719
I1
sI720
I1
sI721
I1
sI722
I1
sI723
I1
sI724
I1
sI725
I1
sI726
I1
sI727
I1
sI728
I1
sI729
I1
sI730
I1
sI731
I1
sI732
I1
sI733
I1
sI734
I1
sI735
I1
sI736
I1
sI737
I1
sI738
I1
sI739
I1
sI740
I1
sI741
I1
sI742
I1
sI743
I1
sI744
I1
sI745
I1
sI746
I1
sI747
I1
sI748
I1
sI749
I1
sI750
I1
sI751
I1
sI752
I1
sI753
I1
sI754
I1
sI755
I1
sI756
I1
sI757
I1
sI758
I1
sI759
I1
sI760
I1
sI761
I1
sI762
I1
sI763
I1
sI764
I1
sI765
I1
sI766
I1
sI767
I1
sI768
I1
sI769
I1
sI770
I1
sI771
I1
sI772
I1
sI773
I1
sI774
I1
sI775
I1
sI776
I1
sI777
I1
sI778
I1
sI779
I1
sI780
I1
sI781
I1
sI782
I1
sI783
I1
sI784
I1
sI785
I1
sI786
I1
sI787
I1
sI788
I1
sI789
I1
sI790
I1
sI791
I1
sI792
I1
sI793
I1
sI794
I1
sI795
I1
sI796
I1
sI797
I1
sI798
I1
sI799
I1
sI800
I1
sI801
I1
sI802
I1
sI803
I1
sI804
I1
sI805
I1
sI806
I1
sI807
I1
sI808
I1
sI809
I1
sI810
I1
sI811
I1
sI812
I1
sI813
I1
sI814
I1
sI815
I1
sI816
I1
sI817
I1
sI818
I1
sI819
I1
sI820
I1
sI821
I1
sI822
I1
sI823
I1
sI824
I1
sI825
I1
sI826
I1
sI827
I1
sI828
I1
sI829
I1
sI830
I1
sI831
I1
sI832
I1
sI833
I1
sI834
I1
sI835
I1
sI836
I1
sI837
I1
sI838
I1
sI839
I1
sI840
I1
sI841
I1
sI842
I1
sI843
I1
sI844
I1
sI845
I1
sI846
I1
sI847
I1
sI848
I1
sI849
I1
sI850
I1
sI851
I1
sI852
I1
sI853
I1
sI854
I1
sI855
I1
sI856
I1
sI857
I1
sI858
I1
sI859
I1
sI860
I1
sI861
I1
sI862
I1
sI863
I1
sI864
I1
sI865
I1
sI866
I1
sI867
I1
sI868
I1
sI869
I1
sI870
I1
sI871
I1
sI872
I1
sI873
I1
sI874
I1
sI875
I1
sI876
I1
sI877
I1
sI878
I1
sI879
I1
sI880
I1
sI881
I1
sI882
I1
sI883
I1
sI884
I1
sI885
I1
sI886
I1
sI887
I1
sI888
I1
sI889
I1
sI890
I1
sI891
I1
sI892
I1
sI893
I1
sI894
I1
sI895
I1
sI896
I1
sI897
I1
sI898
I1
sI899
I1
sI900
I1
sI901
I1
sI902
I1
sI903
I1
sI904
I1
sI905
I1
sI906
I1
sI907
I1
sI908
I1
sI909
I1
sI910
I1
sI911
I1
sI912
I1
sI913
I1
sI914
I1
sI915
I1
sI916
I1
sI917
I1
sI918
I1
sI919
I1
sI920
I1
sI921
I1
sI922
I1
sI923
I1
sI924
I1
sI925
I1
sI926
I1
sI927
I1
sI928
I1
sI929
I1
sI930
I1
sI931
I1
sI932
I1
sI933
I1
sI934
I1
sI935
I1
sI936
I1
sI937
I1
sI938
I1
sI939
I1
sI940
I1
sI941
I1
sI942
I1
sI943
I1
sI944
I1
sI945
I1
sI946
I1
sI947
I1
sI948
I1
sI949
I1
sI950
I1
sI951
I1
sI952
I1
sI953
I1
sI954
I1
sI955
I1
sI956
I1
sI957
I1
sI958
I1
sI959
I1
sI960
I1
sI961
I1
sI962
I1
sI963
I1
sI964
I1
sI965
I1
sI966
I1
sI967
I1
sI968
I1
sI969
I1
sI970
I1
sI971
I1
sI972
I1
sI973
I1
sI974
I1
sI975
I1
sI976
I1
sI977
I1
sI978
I1
sI979
I1
sI980
I1
sI981
I1
sI982
I1
sI983
I1
sI984
I1
sI985
I1
sI986
I1
sI987
I1
sI988
I1
sI989
I1
sI990
I1
sI991
I1
sI992
I1
sI993
I1
sI994
I1
sI995
I1
sI996
I1
sI997
I1
sI998
I1
sI999
I1
sI1000
I1
sI1001
I1
sI1002
I1
sI1003
I1
sI1004
I1
sI1005
I1
sI1006
I1
sI1007
I1
sI1008
I1
sI1009
I1
sI1010
I1
sI1011
I1
sI1012
I1
sI1013
I1
sI1014
I1
sI1015
I1
sI1016
I1
sI1017
I1
sI1018
I1
sI1019
I1
sI1020
I1
sI1021
I1
sI1022
I1
sI1023
I1
sI1024
I1
sI1025
I1
sI1026
I1
sI1027
I1
sI1028
I1
sI1029
I1
sI1030
I1
sI1031
I1
sI1032
I1
sI1033
I1
sI1034
I1
sI1035
I1
sI1036
I1
sI1037
I1
sI1038
I1
sI1039
I1
sI1040
I1
sI1041
I1
sI1042
I1
sI1043
I1
sI1044
I1
sI1045
I1
sI1046
I1
sI1047
I1
sI1048
I1
sI1049
I1
sI1050
I1
sI1051
I1
sI1052
I1
sI1053
I1
sI1054
I1
sI1055
I1
sI1056
I1
sI1057
I1
sI1058
I1
sI1059
I1
sI1060
I1
sI1061
I1
sI1062
I1
sI1063
I1
sI1064
I1
sI1065
I1
sI1066
I1
sI1067
I1
sI1068
I1
sI1069
I1
sI1070
I1
sI1071
I1
sI1072
I1
sI1073
I1
sI1074
I1
sI1075
I1
sI1076
I1
sI1077
I1
sI1078
I1
sI1079
I1
sI1080
I1
sI1081
I1
sI1082
I1
sI1083
I1
sI1084
I1
sI1085
I1
sI1086
I1
sI1087
I1
sI1088
I1
sI1089
I1
sI1090
I1
sI1091
I1
sI1092
I1
sI1093
I1
sI1094
I1
sI1095
I1
sI1096
I1
sI1097
I1
sI1098
I1
sI1099
I1
sI1100
I1
sI1101
I1
sI1102
I1
sI1103
I1
sI1104
I1
sI1105
I1
sI1106
I1
sI1107
I1
sI1108
I1
sI1109
I1
sI1110
I1
sI1111
I1
sI1112
I1
sI1113
I1
sI1114
I1
sI1115
I1
sI1116
I1
sI1117
I1
sI1118
I1
sI1119
I1
sI1120
I1
sI1121
I1
sI1122
I1
sI1123
I1
sI1124
I1
sI1125
I1
sI1126
I1
sI1127
I1
sI1128
I1
sI1129
I1
sI1130
I1
sI1131
I1
sI1132
I1
sI1133
I1
sI1134
I1
sI1135
I1
sI1136
I1
sI1137
I1
sI1138
I1
sI1139
I1
sI1140
I1
sI1141
I1
sI1142
I1
sI1143
I1
sI1144
I1
sI1145
I1
sI1146
I1
sI1147
I1
sI1148
I1
sI1149
I1
sI1150
I1
sI1151
I1
sI1152
I1
sI1153
I1
sI1154
I1
sI1155
I1
sI1156
I1
sI1157
I1
sI1158
I1
sI1159
I1
sI1160
I1
sI1161
I1
sI1162
I1
sI1163
I1
sI1164
I1
sI1165
I1
sI1166
I1
sI1167
I1
sI1168
I1
sI1169
I1
sI1170
I1
sI1171
I1
sI1172
I1
sI1173
I1
sI1174
I1
sI1175
I1
sI1176
I1
sI1177
I1
sI1178
I1
sI1179
I1
sI1180
I1
sI1181
I1
sI1182
I1
sI1183
I1
sI1184
I1
sI1185
I1
sI1186
I1
sI1187
I1
sI1188
I1
sI1189
I1
sI1190
I1
sI1191
I1
sI1192
I1
sI1193
I1
sI1194
I1
sI1195
I1
sI1196
I1
sI1197
I1
sI1198
I1
sI1199
I1
sI1200
I1
sI1201
I1
sI1202
I1
sI1203
I1
sI1204
I1
sI1205
I1
sI1206
I1
sI1207
I1
sI1208
I1
sI1209
I1
sI1210
I1
sI1211
I1
sI1212
I1
sI1213
I1
sI1214
I1
sI1215
I1
sI1216
I1
sI1217
I1
sI1218
I1
sI1219
I1
sI1220
I1
sI1221
I1
sI1222
I1
sI1223
I1
sI1224
I1
sI1225
I1
sI1226
I1
sI1227
I1
sI1228
I1
sI1229
I1
sI1230
I1
sI1231
I1
sI1232
I1
sI1233
I1
sI1234
I1
sI1235
I1
sI1236
I1
sI1237
I1
sI1238
I1
sI1239
I1
sI1240
I1
sI1241
I1
sI1242
I1
sI1243
I1
sI1244
I1
sI1245
I1
sI1246
I1
sI1247
I1
sI1248
I1
sI1249
I1
sI1250
I1
sI1251
I1
sI1252
I1
sI1253
I1
sI1254
I1
sI1255
I1
sI1256
I1
sI1257
I1
sI1258
I1
sI1259
I1
sI1260
I1
sI1261
I1
sI1262
I1
sI1263
I1
sI1264
I1
sI1265
I1
sI1266
I1
sI1267
I1
sI1268
I1
sI1269
I1
sI1270
I1
sI1271
I1
sI1272
I1
sI1273
I1
sI1274
I1
sI1275
I1
sI1276
I1
sI1277
I1
sI1278
I1
sI1279
I1
sI1280
I1
sI1281
I1
sI1282
I1
sI1283
I1
sI1284
I1
sI1285
I1
sI1286
I1
sI1287
I1
sI1288
I1
sI1289
I1
sI1290
I1
sI1291
I1
sI1292
I1
sI1293
I1
sI1294
I1
sI1295
I1
sI1296
I1
sI1297
I1
sI1298
I1
sI1299
I1
sI1300
I1
sI1301
I1
sI1302
I1
sI1303
I1
sI1304
I1
sI1305
I1
sI1306
I1
sI1307
I1
sI1308
I1
sI1309
I1
sI1310
I1
sI1311
I1
sI1312
I1
sI1313
I1
sI1314
I1
sI1315
I1
sI1316
I1
sI1317
I1
sI1318
I1
sI1319
I1
sI1320
I1
sI1321
I1
sI1322
I1
sI1323
I1
sI1324
I1
sI1325
I1
sI1326
I1
sI1327
I1
sI1328
I1
sI1329
I1
sI1330
I1
sI1331
I1
sI1332
I1
sI1333
I1
sI1334
I1
sI1335
I1
sI1336
I1
sI1337
I1
sI1338
I1
sI1339
I1
sI1340
I1
sI1341
I1
sI1342
I1
sI1343
I1
sI1344
I1
sI1345
I1
sI1346
I1
sI1347
I1
sI1348
I1
sI1349
I1
sI1350
I1
sI1351
I1
sI1352
I1
sI1353
I1
sI1354
I1
sI1355
I1
sI1356
I1
sI1357
I1
sI1358
I1
sI1359
I1
sI1360
I1
sI1361
I1
sI1362
I1
sI1363
I1
sI1364
I1
sI1365
I1
sI1366
I1
sI1367
I1
sI1368
I1
sI1369
I1
sI1370
I1
sI1371
I1
sI1372
I1
sI1373
I1
sI1374
I1
sI1375
I1
sI1376
I1
sI1377
I1
sI1378
I1
sI1379
I1
sI1380
I1
sI1381
I1
sI1382
I1
sI1383
I1
sI1384
I1
sI1385
I1
sI1386
I1
sI1387
I1
sI1388
I1
sI1389
I1
sI1390
I1
sI1391
I1
sI1392
I1
sI1393
I1
sI1394
I1
sI1395
I1
sI1396
I1
sI1397
I1
sI1398
I1
sI1399
I1
sI1400
I1
sI1401
I1
sI1402
I1
sI1403
I1
sI1404
I1
sI1405
I1
sI1406
I1
sI1407
I1
sI1408
I1
sI1409
I1
sI1410
I1
sI1411
I1
sI1412
I1
sI1413
I1
sI1414
I1
sI1415
I1
sI1416
I1
sI1417
I1
sI1418
I1
sI1419
I1
sI1420
I1
sI1421
I1
sI1422
I1
sI1423
I1
sI1424
I1
sI1425
I1
sI1426
I1
sI1427
I1
sI1428
I1
sI1429
I1
sI1430
I1
sI1431
I1
sI1432
I1
sI1433
I1
sI1434
I1
sI1435
I1
sI1436
I1
sI1437
I1
sI1438
I1
sI1439
I1
sI1440
I1
sI1441
I1
sI1442
I1
sI1443
I1
sI1444
I1
sI1445
I1
sI1446
I1
sI1447
I1
sI1448
I1
sI1449
I1
sI1450
I1
sI1451
I1
sI1452
I1
sI1453
I1
sI1454
I1
sI1455
I1
sI1456
I1
sI1457
I1
sI1458
I1
sI1459
I1
sI1460
I1
sI1461
I1
sI1462
I1
sI1463
I1
sI1464
I1
sI1465
I1
sI1466
I1
sI1467
I1
sI1468
I1
sI1469
I1
sI1470
I1
sI1471
I1
sI1472
I1
sI1473
I1
sI1474
I1
sI1475
I1
sI1476
I1
sI1477
I1
sI1478
I1
sI1479
I1
sI1480
I1
sI1481
I1
sI1482
I1
sI1483
I1
sI1484
I1
sI1485
I1
sI1486
I1
sI1487
I1
sI1488
I1
sI1489
I1
sI1490
I1
sI1491
I1
sI1492
I1
sI1493
I1
sI1494
I1
sI1495
I1
sI1496
I1
sI1497
I1
sI1498
I1
sI1499
I1
sI1500
I1
sI1501
I1
sI1502
I1
sI1503
I1
sI1504
I1
sI1505
I1
sI1506
I1
sI1507
I1
sI1508
I1
sI1509
I1
sI1510
I1
sI1511
I1
sI1512
I1
sI1513
I1
sI1514
I1
sI1515
I1
sI1516
I1
sI1517
I1
sI1518
I1
sI1519
I1
sI1520
I1
sI1521
I1
sI1522
I1
sI1523
I1
sI1524
I1
sI1525
I1
sI1526
I1
sI1527
I1
sI1528
I1
sI1529
I1
sI1530
I1
sI1531
I1
sI1532
I1
sI1533
I1
sI1534
I1
sI1535
I1
sI1536
I1
sI1537
I1
sI1538
I1
sI1539
I1
sI1540
I1
sI1541
I1
sI1542
I1
sI1543
I1
sI1544
I1
sI1545
I1
sI1546
I1
sI1547
I1
sI1548
I1
sI1549
I1
sI1550
I1
sI1551
I1
sI1552
I1
sI1553
I1
sI1554
I1
sI1555
I1
sI1556
I1
sI1557
I1
sI1558
I1
sI1559
I1
sI1560
I1
sI1561
I1
sI1562
I1
sI1563
I1
sI1564
I1
sI1565
I1
sI1566
I1
sI1567
I1
sI1568
I1
sI1569
I1
sI1570
I1
sI1571
I1
ssS'document_count'
p3165
I1000
sS'num_words'
p3166
Nsb.